Certificate:
    Data:
        Version: 3 (0x2)
        Serial Number: 1 (0x1)
    Signature Algorithm: sha256WithRSAEncryption
        Issuer: CN=Root CA
        Validity
            Not Before: May 26 11:36:50 2018 GMT
            Not After : May 23 11:36:50 2028 GMT
        Subject: CN=localhost
        Subject Public Key Info:
            Public Key Algorithm: rsaEncryption
                Public-Key: (2048 bit)
                Modulus:
                    00:a7:14:34:bc:ee:03:63:09:64:7e:d2:8f:2e:77:
                    1a:54:b1:9c:84:30:be:98:00:5b:1c:25:6c:a0:c9:
                    1f:7d:01:19:dc:7c:e6:33:66:26:02:d9:50:3c:9d:
                    ca:a4:23:e5:14:4d:00:47:7c:8d:49:f8:46:4b:00:
                    17:e9:93:2e:ad:2a:57:23:42:b4:eb:e5:a8:5d:63:
                    bf:cc:05:f5:62:fa:56:3a:29:30:88:18:af:e5:ad:
                    6a:6a:4e:79:e7:30:9c:a1:0b:f9:33:64:ef:ab:c9:
                    2b:0a:ae:88:bb:a3:0c:13:c1:38:c0:02:b3:62:e9:
                    d8:03:80:f2:b0:a7:05:8f:e9:59:a6:62:8b:d2:e8:
                    b9:0e:e6:e6:f8:ac:58:b0:0d:33:69:f3:ef:7b:71:
                    52:30:6b:78:f4:53:30:58:90:83:f3:7d:79:6f:dd:
                    a2:6b:ab:93:ab:99:93:3c:ea:a5:7c:d3:86:1c:33:
                    9e:bd:83:aa:fb:b0:38:3c:bf:cf:7a:e9:38:9c:84:
                    09:9f:7d:a7:62:2c:01:72:5d:8c:ee:be:63:44:50:
                    0e:45:6a:e2:19:e7:02:98:c1:29:c4:1b:43:d9:ea:
                    7d:46:46:d5:fa:68:60:f9:ce:bf:37:64:e2:72:c8:
                    ca:a9:4c:e5:38:45:87:04:c5:c8:cc:94:09:42:0f:
                    8e:7b
                Exponent: 65537 (0x10001)
        X509v3 extensions:
            X509v3 Subject Alternative Name: 
                DNS:localhost
    Signature Algorithm: sha256WithRSAEncryption
         9f:69:56:e6:8d:be:04:77:45:c3:4e:2a:75:75:d4:e8:17:37:
         f5:6c:34:ce:1d:da:99:53:f9:b2:3a:14:d7:a6:7b:e6:17:e9:
         8b:bd:03:65:90:99:55:df:ff:1b:8c:72:1d:96:f4:ea:17:94:
         93:ea:d5:0e:f4:ee:ec:ba:3f:ed:ea:b9:49:a2:58:27:96:be:
         5f:9e:7e:04:45:b3:c1:b8:05:1f:c4:5e:c5:43:13:43:af:bb:
         c1:cf:fc:50:e7:d7:6b:58:e2:df:c5:c4:a3:22:b6:45:79:9a:
         a3:f8:1f:74:16:08:0b:a2:e1:42:4f:6d:31:dc:09:ef:70:5d:
         3b:a8:d5:aa:ae:d6:58:88:22:97:bf:fe:2c:a1:29:4a:44:ed:
         ab:6b:9e:dd:cc:a6:45:34:b2:94:d6:65:78:fa:cd:1b:9a:0e:
         84:36:0b:ff:eb:1c:bb:9f:e9:88:85:88:d1:df:8f:9f:bd:e1:
         45:7c:bf:87:07:10:b4:a7:f8:3a:84:7f:31:2b:a9:40:af:8f:
         56:ee:48:dc:a0:8e:98:2d:4f:48:de:76:c3:0e:a6:b9:b9:57:
         9b:cf:02:b2:5d:8e:88:04:b7:5e:16:b0:bd:f1:b6:6f:bf:dd:
         73:36:9d:90:6f:21:c9:66:12:85:61:89:72:14:b4:c0:2b:8d:
         a1:66:79:00
-----BEGIN CERTIFICATE-----
MIICuTCCAaGgAwIBAgIBATANBgkqhkiG9w0BAQsFADASMRAwDgYDVQQDDAdSb290
IENBMB4XDTE4MDUyNjExMzY1MFoXDTI4MDUyMzExMzY1MFowFDESMBAGA1UEAxMJ
bG9jYWxob3N0MIIBIjANBgkqhkiG9w0BAQEFAAOCAQ8AMIIBCgKCAQEApxQ0vO4D
YwlkftKPLncaVLGchDC+mABbHCVsoMkffQEZ3HzmM2YmAtlQPJ3KpCPlFE0AR3yN
SfhGSwAX6ZMurSpXI0K06+WoXWO/zAX1YvpWOikwiBiv5a1qak555zCcoQv5M2Tv
q8krCq6Iu6MME8E4wAKzYunYA4DysKcFj+lZpmKL0ui5Dubm+KxYsA0zafPve3FS
MGt49FMwWJCD8315b92ia6uTq5mTPOqlfNOGHDOevYOq+7A4PL/Peuk4nIQJn32n
YiwBcl2M7r5jRFAORWriGecCmMEpxBtD2ep9RkbV+mhg+c6/N2TicsjKqUzlOEWH
BMXIzJQJQg+OewIDAQABoxgwFjAUBgNVHREEDTALgglsb2NhbGhvc3QwDQYJKoZI
hvcNAQELBQADggEBAJ9pVuaNvgR3RcNOKnV11OgXN/VsNM4d2plT+bI6FNeme+YX
6Yu9A2WQmVXf/xuMch2W9OoXlJPq1Q707uy6P+3quUmiWCeWvl+efgRFs8G4BR/E
XsVDE0Ovu8HP/FDn12tY4t/FxKMitkV5mqP4H3QWCAui4UJPbTHcCe9wXTuo1aqu
1liIIpe//iyhKUpE7atrnt3MpkU0spTWZXj6zRuaDoQ2C//rHLuf6YiFiNHfj5+9
4UV8v4cHELSn+DqEfzErqUCvj1buSNygjpgtT0jedsMOprm5V5vPArJdjogEt14W
sL3xtm+/3XM2nZBvIclmEoVhiXIUtMArjaFmeQA=
-----END CERTIFICATE-----
