Certificate:
    Data:
        Version: 3 (0x2)
        Serial Number: 2 (0x2)
    Signature Algorithm: sha256WithRSAEncryption
        Issuer: CN=Root CA
        Validity
            Not Before: May 26 11:36:51 2018 GMT
            Not After : May 23 11:36:51 2028 GMT
        Subject: CN=Intermediate CA
        Subject Public Key Info:
            Public Key Algorithm: rsaEncryption
                Public-Key: (2048 bit)
                Modulus:
                    00:b6:6b:ed:4e:b8:cd:f8:0e:60:7b:7c:4a:fd:4d:
                    98:9e:2e:25:24:99:6a:77:a6:39:7d:5b:08:3d:40:
                    b5:e4:48:cc:f5:63:70:ff:55:2e:1e:81:44:80:25:
                    32:14:0a:7c:0a:5f:99:28:28:b4:2a:f7:ce:58:3e:
                    6c:77:d7:ba:3b:fa:9a:13:a0:47:ad:51:6d:9c:05:
                    bd:04:3f:40:b8:6c:e3:f8:d9:76:25:ba:f9:47:3f:
                    62:82:6f:e1:df:e2:b5:0b:98:53:81:31:f7:14:5b:
                    2a:b3:3c:87:ec:ed:f6:c8:51:61:98:7d:00:11:84:
                    65:9d:36:5e:e1:27:b2:97:09:80:8b:8c:22:b1:b1:
                    74:d3:6e:e8:43:7c:a0:51:a2:65:39:b6:dd:08:de:
                    01:fd:62:12:91:16:27:1b:75:05:ff:fa:f4:17:3b:
                    1a:c5:41:cd:fb:01:a0:ce:15:cb:6d:94:e1:e8:7c:
                    05:04:d4:e7:53:2a:68:1b:82:b1:4c:9d:f5:bd:98:
                    c1:e8:51:a4:42:f5:94:7d:95:c6:d1:c4:79:80:0d:
                    b8:a8:fb:70:87:40:12:8f:f2:2a:08:d4:40:54:37:
                    2e:30:ee:6a:bb:d2:af:f1:7f:ec:25:58:5a:d6:0f:
                    d6:34:3e:ad:a3:1b:95:fc:97:43:a0:5b:8f:b0:5e:
                    c9:19
                Exponent: 65537 (0x10001)
        X509v3 extensions:
            X509v3 Basic Constraints: 
                CA:TRUE
    Signature Algorithm: sha256WithRSAEncryption
         0d:41:e3:42:3b:0f:b4:fd:7c:b2:7c:3f:c8:aa:8b:fc:12:10:
         f3:cd:9b:a1:25:8b:ee:a4:e6:0e:f4:15:9a:b1:22:6f:c9:16:
         1b:8d:6d:5a:e3:3e:2d:ad:d8:99:b5:76:90:b4:41:14:78:6a:
         5f:ff:a7:e4:cc:f1:49:fc:5a:c8:b8:83:55:8c:41:5b:11:00:
         c5:24:7d:97:58:8a:b0:59:ae:16:c0:bc:ce:e1:30:01:ee:2e:
         de:cd:06:ea:ec:c9:a2:48:76:8b:b2:c8:b0:24:c4:eb:3f:43:
         2f:86:f4:da:92:f4:cb:6b:88:ed:55:3f:59:38:ff:e8:67:49:
         a4:5b:48:94:77:fd:d0:ce:29:d5:e2:be:8c:70:27:33:52:19:
         35:9e:51:e5:ba:95:e6:99:4c:40:42:20:11:02:e6:86:2f:a5:
         61:85:e2:30:83:b6:b4:09:36:5e:02:39:51:ce:85:7a:61:03:
         fe:b4:83:1e:82:89:96:43:4c:df:de:75:83:98:2d:9c:7b:ab:
         fa:17:c9:48:99:4c:d0:cf:2e:73:e6:69:b8:66:9a:dd:23:08:
         0f:0c:18:bc:c4:00:d8:58:43:b5:69:01:df:10:39:6c:11:25:
         fb:2a:7c:3d:71:0c:8d:71:87:3e:b6:b2:2e:7b:27:95:b7:4f:
         44:fd:f3:0e
-----BEGIN CERTIFICATE-----
MIICtzCCAZ+gAwIBAgIBAjANBgkqhkiG9w0BAQsFADASMRAwDgYDVQQDDAdSb290
IENBMB4XDTE4MDUyNjExMzY1MVoXDTI4MDUyMzExMzY1MVowGjEYMBYGA1UEAwwP
SW50ZXJtZWRpYXRlIENBMIIBIjANBgkqhkiG9w0BAQEFAAOCAQ8AMIIBCgKCAQEA
tmvtTrjN+A5ge3xK/U2Yni4lJJlqd6Y5fVsIPUC15EjM9WNw/1UuHoFEgCUyFAp8
Cl+ZKCi0KvfOWD5sd9e6O/qaE6BHrVFtnAW9BD9AuGzj+Nl2Jbr5Rz9igm/h3+K1
C5hTgTH3FFsqszyH7O32yFFhmH0AEYRlnTZe4SeylwmAi4wisbF0027oQ3ygUaJl
ObbdCN4B/WISkRYnG3UF//r0FzsaxUHN+wGgzhXLbZTh6HwFBNTnUypoG4KxTJ31
vZjB6FGkQvWUfZXG0cR5gA24qPtwh0ASj/IqCNRAVDcuMO5qu9Kv8X/sJVha1g/W
ND6toxuV/JdDoFuPsF7JGQIDAQABoxAwDjAMBgNVHRMEBTADAQH/MA0GCSqGSIb3
DQEBCwUAA4IBAQANQeNCOw+0/XyyfD/Iqov8EhDzzZuhJYvupOYO9BWasSJvyRYb
jW1a4z4trdiZtXaQtEEUeGpf/6fkzPFJ/FrIuINVjEFbEQDFJH2XWIqwWa4WwLzO
4TAB7i7ezQbq7MmiSHaLssiwJMTrP0MvhvTakvTLa4jtVT9ZOP/oZ0mkW0iUd/3Q
zinV4r6McCczUhk1nlHlupXmmUxAQiARAuaGL6VhheIwg7a0CTZeAjlRzoV6YQP+
tIMegomWQ0zf3nWDmC2ce6v6F8lImUzQzy5z5mm4ZprdIwgPDBi8xADYWEO1aQHf
EDlsESX7Knw9cQyNcYc+trIueyeVt09E/fMO
-----END CERTIFICATE-----
