Certificate:
    Data:
        Version: 3 (0x2)
        Serial Number: 1 (0x1)
        Signature Algorithm: sha1WithRSAEncryption
        Issuer: CN=localhost
        Validity
            Not Before: Oct 21 09:11:35 2016 GMT
            Not After : Oct 21 09:11:35 2017 GMT
        Subject: CN=localhost
        Subject Public Key Info:
            Public Key Algorithm: rsaEncryption
            RSA Public Key: (2048 bit)
                Modulus (2048 bit):
                    00:94:ee:20:6c:77:85:6f:f7:e6:6d:41:7f:b4:e2:
                    5f:34:f2:6e:98:95:04:aa:0c:c0:cf:1f:0c:05:7b:
                    fd:01:cc:b0:f4:84:5a:f2:06:22:0a:b7:3e:3e:87:
                    da:0e:bf:73:6a:ce:de:d5:3f:c0:cf:3b:b9:e3:0c:
                    8e:a9:d3:33:83:de:d5:18:35:c5:b4:dc:ad:4e:af:
                    6c:b5:08:9d:e9:c7:03:4a:be:83:37:c8:01:02:0c:
                    07:78:e5:a9:1e:bf:bd:3e:13:25:b7:40:4f:3d:e4:
                    f2:f9:2d:5f:e9:5f:32:00:52:1f:5d:56:e3:10:e1:
                    cb:77:f7:33:4a:a0:35:13:c9:f7:cd:0b:fd:8f:e9:
                    ef:b7:27:93:90:65:66:93:a3:ac:03:d6:3c:98:c3:
                    71:ef:4e:06:a1:b0:94:a3:c4:ef:08:76:f5:1f:47:
                    ff:01:56:c3:d5:dc:e5:f7:9f:50:30:01:98:90:bc:
                    32:1c:69:31:07:58:0b:39:d6:19:7a:66:f0:57:23:
                    b3:dc:f8:bc:d6:84:e5:6f:18:5d:7a:02:a5:b6:48:
                    91:18:04:be:3a:1e:b2:b0:34:79:be:7d:56:ea:b2:
                    b5:04:22:25:bb:6d:97:51:8d:45:92:30:32:28:71:
                    f1:e1:3d:6b:54:37:08:8e:ed:1a:1f:b9:72:01:9b:
                    ba:5f
                Exponent: 65537 (0x10001)
        X509v3 extensions:
            X509v3 Subject Alternative Name: 
                DNS:localhost
    Signature Algorithm: sha1WithRSAEncryption
        9c:ab:17:21:9c:1b:79:82:1b:c4:24:df:fe:b3:03:d8:f6:7d:
        6c:b7:ce:6e:17:2a:aa:7f:dc:b8:e1:d5:e9:d7:e4:c7:fc:e0:
        eb:8e:4f:c9:84:f0:c4:30:bb:d5:08:73:fa:41:f1:ba:12:77:
        b3:ab:f1:22:e1:3d:78:b6:1e:34:12:f5:1b:1b:46:dd:f3:11:
        94:ba:54:9d:fa:27:09:9d:ca:25:5a:d5:e3:1e:a3:2c:e1:28:
        64:27:71:1b:60:16:eb:c2:71:f0:88:eb:7f:00:cd:c6:ba:55:
        ec:67:ea:9b:f5:22:ba:bf:c0:e8:ba:c1:d5:19:f9:a1:17:d7:
        f8:83:d8:c8:bd:c1:3c:81:7f:d1:22:2a:d9:5f:21:1f:6a:91:
        c6:69:c2:a4:e7:3a:5c:f0:35:8d:a6:08:a6:23:91:04:18:aa:
        b8:f9:57:de:30:9b:61:0c:b3:e5:fe:2a:82:83:b0:c3:2c:a2:
        0d:31:6d:af:f0:0a:5a:73:05:16:b2:f9:02:ff:d9:a9:f8:1f:
        99:d6:0b:81:aa:0b:a3:ae:50:ca:39:7e:a7:48:0e:f6:ba:1f:
        ec:7c:82:6f:86:9e:dc:36:3b:ef:99:a4:6e:a7:1b:cb:b1:20:
        cf:35:78:2b:59:81:62:5d:04:d5:ee:ec:f9:1a:c2:30:51:52:
        e5:5c:66:a8
-----BEGIN CERTIFICATE-----
MIICuzCCAaOgAwIBAgIBATANBgkqhkiG9w0BAQUFADAUMRIwEAYDVQQDEwlsb2Nh
bGhvc3QwHhcNMTYxMDIxMDkxMTM1WhcNMTcxMDIxMDkxMTM1WjAUMRIwEAYDVQQD
Ewlsb2NhbGhvc3QwggEiMA0GCSqGSIb3DQEBAQUAA4IBDwAwggEKAoIBAQCU7iBs
d4Vv9+ZtQX+04l808m6YlQSqDMDPHwwFe/0BzLD0hFryBiIKtz4+h9oOv3Nqzt7V
P8DPO7njDI6p0zOD3tUYNcW03K1Or2y1CJ3pxwNKvoM3yAECDAd45akev70+EyW3
QE895PL5LV/pXzIAUh9dVuMQ4ct39zNKoDUTyffNC/2P6e+3J5OQZWaTo6wD1jyY
w3HvTgahsJSjxO8IdvUfR/8BVsPV3OX3n1AwAZiQvDIcaTEHWAs51hl6ZvBXI7Pc
+LzWhOVvGF16AqW2SJEYBL46HrKwNHm+fVbqsrUEIiW7bZdRjUWSMDIocfHhPWtU
NwiO7RofuXIBm7pfAgMBAAGjGDAWMBQGA1UdEQQNMAuCCWxvY2FsaG9zdDANBgkq
hkiG9w0BAQUFAAOCAQEAnKsXIZwbeYIbxCTf/rMD2PZ9bLfObhcqqn/cuOHV6dfk
x/zg645PyYTwxDC71Qhz+kHxuhJ3s6vxIuE9eLYeNBL1GxtG3fMRlLpUnfonCZ3K
JVrV4x6jLOEoZCdxG2AW68Jx8IjrfwDNxrpV7Gfqm/Uiur/A6LrB1Rn5oRfX+IPY
yL3BPIF/0SIq2V8hH2qRxmnCpOc6XPA1jaYIpiORBBiquPlX3jCbYQyz5f4qgoOw
wyyiDTFtr/AKWnMFFrL5Av/ZqfgfmdYLgaoLo65Qyjl+p0gO9rof7HyCb4ae3DY7
75mkbqcby7EgzzV4K1mBYl0E1e7s+RrCMFFS5VxmqA==
-----END CERTIFICATE-----
