Certificate:
    Data:
        Version: 3 (0x2)
        Serial Number: 1 (0x1)
        Signature Algorithm: sha256WithRSAEncryption
        Issuer: CN=Root CA
        Validity
            Not Before: May 27 17:06:06 2022 GMT
            Not After : May 19 17:06:06 2052 GMT
        Subject: CN=localhost
        Subject Public Key Info:
            Public Key Algorithm: rsaEncryption
                RSA Public-Key: (2048 bit)
                Modulus:
                    00:dc:f4:80:a5:a5:59:e2:dd:b5:0f:d9:b9:ac:f7:
                    6f:3d:22:c1:dc:05:78:3b:ff:f6:bb:8e:70:15:13:
                    b1:04:40:8c:0c:98:10:86:f5:08:72:54:92:b5:94:
                    d4:1d:c9:64:33:53:dc:b2:61:a3:c8:dd:94:07:f8:
                    95:6e:f0:a6:16:c2:e5:5f:5b:aa:20:2d:a8:42:ff:
                    ba:84:e2:71:1e:e5:1b:5a:26:bb:28:db:7d:39:b5:
                    71:ea:a7:ac:11:52:89:5f:b0:54:d5:25:0c:2f:c9:
                    38:81:1e:0f:71:7d:d7:ed:b6:33:16:d4:85:40:3f:
                    64:62:50:05:d1:3f:23:9e:15:4b:78:13:f8:ec:61:
                    e5:e9:43:0f:e8:83:d0:18:b8:b5:3f:04:d2:e7:7f:
                    d4:fd:47:e0:9e:6f:cd:9d:fc:c7:8c:51:44:1a:1f:
                    3d:2d:9d:4f:67:67:35:d9:3e:a7:da:e8:dc:53:d8:
                    c7:4c:8c:dd:6c:1a:e8:da:38:dd:34:9d:94:bc:b2:
                    be:bc:c1:f5:84:9c:f4:7f:30:c7:c0:e6:30:34:17:
                    d2:b8:97:a1:d3:cc:ec:1c:29:ec:8b:3c:b6:9c:f1:
                    f5:6e:3a:b4:51:20:84:85:46:19:c5:54:26:b7:cc:
                    f7:18:b3:9c:6d:55:2f:79:30:01:74:5a:d0:15:d7:
                    72:e7
                Exponent: 65537 (0x10001)
        X509v3 extensions:
            X509v3 Subject Alternative Name: 
                DNS:localhost
    Signature Algorithm: sha256WithRSAEncryption
         6d:a3:b3:ab:83:38:39:e6:65:9c:cc:a4:fa:05:bb:b5:75:eb:
         90:00:e7:80:5b:c0:e6:c8:ff:00:c2:0e:18:97:96:3d:0e:b1:
         82:63:e9:4f:11:a8:b3:c0:36:ec:f5:ae:e9:07:23:ac:cd:8d:
         6e:95:96:b0:cd:39:d7:5d:48:a9:19:80:2a:96:c1:5a:e4:f9:
         f2:9d:76:d6:05:6a:11:7e:df:a3:70:c5:53:9b:59:1b:51:0d:
         72:6d:35:fc:78:02:86:40:2d:2f:82:d3:e3:8d:60:4e:9d:de:
         bf:fa:5f:fc:14:a9:82:46:af:05:be:3f:57:36:94:b5:39:73:
         45:ec:2b:fe:a2:21:60:1e:cd:b3:76:22:7d:d9:b8:93:32:39:
         5d:09:b7:40:41:bf:de:d7:df:80:2b:d7:a7:cc:e6:4e:2d:6d:
         ce:d4:23:91:47:f8:f6:66:1f:bd:fe:bc:e9:a2:46:0f:41:6f:
         5f:a8:1a:29:87:9c:4e:be:e1:f0:47:44:ac:0a:f3:c1:6b:fe:
         cb:d5:84:96:cd:ff:cc:a5:93:f8:5c:f7:2f:53:2b:d4:32:ef:
         d8:e7:44:6c:98:11:ba:13:1b:76:03:ca:08:82:7c:e9:b0:8a:
         67:77:4e:59:7a:9f:8b:54:32:fa:24:45:01:a2:50:62:ad:5a:
         ec:54:52:87
-----BEGIN CERTIFICATE-----
MIICuzCCAaOgAwIBAgIBATANBgkqhkiG9w0BAQsFADASMRAwDgYDVQQDDAdSb290
IENBMCAXDTIyMDUyNzE3MDYwNloYDzIwNTIwNTE5MTcwNjA2WjAUMRIwEAYDVQQD
Ewlsb2NhbGhvc3QwggEiMA0GCSqGSIb3DQEBAQUAA4IBDwAwggEKAoIBAQDc9ICl
pVni3bUP2bms9289IsHcBXg7//a7jnAVE7EEQIwMmBCG9QhyVJK1lNQdyWQzU9yy
YaPI3ZQH+JVu8KYWwuVfW6ogLahC/7qE4nEe5RtaJrso2305tXHqp6wRUolfsFTV
JQwvyTiBHg9xfdfttjMW1IVAP2RiUAXRPyOeFUt4E/jsYeXpQw/og9AYuLU/BNLn
f9T9R+Ceb82d/MeMUUQaHz0tnU9nZzXZPqfa6NxT2MdMjN1sGujaON00nZS8sr68
wfWEnPR/MMfA5jA0F9K4l6HTzOwcKeyLPLac8fVuOrRRIISFRhnFVCa3zPcYs5xt
VS95MAF0WtAV13LnAgMBAAGjGDAWMBQGA1UdEQQNMAuCCWxvY2FsaG9zdDANBgkq
hkiG9w0BAQsFAAOCAQEAbaOzq4M4OeZlnMyk+gW7tXXrkADngFvA5sj/AMIOGJeW
PQ6xgmPpTxGos8A27PWu6QcjrM2NbpWWsM05111IqRmAKpbBWuT58p121gVqEX7f
o3DFU5tZG1ENcm01/HgChkAtL4LT441gTp3ev/pf/BSpgkavBb4/VzaUtTlzRewr
/qIhYB7Ns3Yifdm4kzI5XQm3QEG/3tffgCvXp8zmTi1tztQjkUf49mYfvf686aJG
D0FvX6gaKYecTr7h8EdErArzwWv+y9WEls3/zKWT+Fz3L1Mr1DLv2OdEbJgRuhMb
dgPKCIJ86bCKZ3dOWXqfi1Qy+iRFAaJQYq1a7FRShw==
-----END CERTIFICATE-----
