Certificate:
    Data:
        Version: 3 (0x2)
        Serial Number: 1 (0x1)
    Signature Algorithm: sha1WithRSAEncryption
        Issuer: CN=localhost
        Validity
            Not Before: Oct 27 08:50:21 2017 GMT
            Not After : Oct 27 08:50:21 2018 GMT
        Subject: CN=localhost
        Subject Public Key Info:
            Public Key Algorithm: rsaEncryption
                Public-Key: (2048 bit)
                Modulus:
                    00:8d:92:f3:50:11:7a:29:a1:6d:5b:bf:26:c9:56:
                    13:63:6f:2c:e5:75:49:b6:06:1a:18:76:af:d0:cb:
                    38:26:e0:10:be:3e:8e:fe:0e:09:2b:b4:9d:1a:f5:
                    90:aa:1a:69:6c:fe:06:a8:ba:bd:48:a1:93:5c:3a:
                    b8:a2:cd:77:99:df:2b:13:c0:c1:63:7d:7d:00:79:
                    44:70:34:89:8a:02:a5:82:e0:1c:ca:d3:2f:a8:43:
                    e3:4c:ae:1c:8c:ae:a1:82:41:73:4d:24:e7:d5:42:
                    d4:f8:e7:e0:d8:5f:d4:7b:21:d6:82:47:f1:e4:67:
                    5d:32:2b:70:57:2e:7f:c4:07:52:00:be:99:5b:6b:
                    f6:65:e2:e7:02:d1:8b:06:e8:68:1b:68:db:bf:f8:
                    ca:31:ed:f3:9d:0c:11:79:84:b1:40:69:8c:88:41:
                    38:6d:9e:65:7e:d8:87:84:e3:74:c8:15:6b:f0:ff:
                    cf:fd:d7:47:e2:17:51:e5:70:64:5e:0d:bd:d3:d0:
                    15:c2:94:dd:a0:ca:c5:d8:da:13:3f:f6:6b:67:81:
                    82:6d:9f:a6:e9:6d:e5:ff:c4:30:7e:f7:ac:9f:87:
                    30:bf:93:32:e9:70:08:42:ba:f4:b5:fc:c3:bd:fa:
                    6d:3c:f7:3f:9e:f6:ff:89:90:79:95:65:05:18:2e:
                    10:09
                Exponent: 65537 (0x10001)
        X509v3 extensions:
            X509v3 Subject Alternative Name: 
                DNS:localhost
    Signature Algorithm: sha1WithRSAEncryption
         4d:14:11:e8:81:42:93:c2:86:36:18:31:00:5e:11:5c:78:77:
         43:1e:3a:5d:6d:fe:6b:eb:44:f8:8c:b9:61:93:37:14:be:9a:
         e4:5b:a0:e5:ed:bc:5e:01:ec:f6:31:5e:03:c7:aa:6c:76:3b:
         91:20:19:cf:bc:0f:57:d7:7a:51:75:34:9d:69:55:5f:64:5f:
         eb:24:f1:bd:75:f2:7d:67:c0:8e:f2:bb:3b:19:2e:8c:23:c1:
         fc:02:dc:7e:eb:b8:79:3c:32:0d:40:d3:6b:7c:39:c5:85:bc:
         3c:9b:bf:76:a4:53:b3:91:82:01:f8:89:86:d5:0d:ff:f8:31:
         50:3b:58:51:e7:71:43:4b:7d:bf:99:bd:1c:c4:98:09:01:0b:
         59:a6:03:af:0c:57:f7:c7:a4:fd:9e:bf:76:22:ec:e8:33:73:
         46:1c:ea:62:5c:81:32:b0:71:e6:f7:c7:97:58:3c:8b:92:7d:
         78:cd:18:c3:58:f6:1b:10:c3:40:27:1c:68:6e:74:85:50:05:
         da:a1:2b:5e:16:1d:6f:e9:98:10:1b:23:ca:8d:35:9b:96:cd:
         9b:53:eb:5c:fd:69:ff:9c:bd:ee:98:71:79:ed:65:de:2f:a3:
         2b:08:d3:06:09:64:09:40:5c:e2:a9:26:4a:c4:6f:4e:01:74:
         c7:fc:1d:69
-----BEGIN CERTIFICATE-----
MIICuzCCAaOgAwIBAgIBATANBgkqhkiG9w0BAQUFADAUMRIwEAYDVQQDDAlsb2Nh
bGhvc3QwHhcNMTcxMDI3MDg1MDIxWhcNMTgxMDI3MDg1MDIxWjAUMRIwEAYDVQQD
Ewlsb2NhbGhvc3QwggEiMA0GCSqGSIb3DQEBAQUAA4IBDwAwggEKAoIBAQCNkvNQ
EXopoW1bvybJVhNjbyzldUm2BhoYdq/Qyzgm4BC+Po7+DgkrtJ0a9ZCqGmls/gao
ur1IoZNcOriizXeZ3ysTwMFjfX0AeURwNImKAqWC4BzK0y+oQ+NMrhyMrqGCQXNN
JOfVQtT45+DYX9R7IdaCR/HkZ10yK3BXLn/EB1IAvplba/Zl4ucC0YsG6GgbaNu/
+Mox7fOdDBF5hLFAaYyIQThtnmV+2IeE43TIFWvw/8/910fiF1HlcGReDb3T0BXC
lN2gysXY2hM/9mtngYJtn6bpbeX/xDB+96yfhzC/kzLpcAhCuvS1/MO9+m089z+e
9v+JkHmVZQUYLhAJAgMBAAGjGDAWMBQGA1UdEQQNMAuCCWxvY2FsaG9zdDANBgkq
hkiG9w0BAQUFAAOCAQEATRQR6IFCk8KGNhgxAF4RXHh3Qx46XW3+a+tE+Iy5YZM3
FL6a5Fug5e28XgHs9jFeA8eqbHY7kSAZz7wPV9d6UXU0nWlVX2Rf6yTxvXXyfWfA
jvK7OxkujCPB/ALcfuu4eTwyDUDTa3w5xYW8PJu/dqRTs5GCAfiJhtUN//gxUDtY
UedxQ0t9v5m9HMSYCQELWaYDrwxX98ek/Z6/diLs6DNzRhzqYlyBMrBx5vfHl1g8
i5J9eM0Yw1j2GxDDQCccaG50hVAF2qErXhYdb+mYEBsjyo01m5bNm1PrXP1p/5y9
7phxee1l3i+jKwjTBglkCUBc4qkmSsRvTgF0x/wdaQ==
-----END CERTIFICATE-----
