Certificate:
    Data:
        Version: 1 (0x0)
        Serial Number: 1 (0x1)
        Signature Algorithm: sha1WithRSAEncryption
        Issuer: CN=localhost
        Validity
            Not Before: Jun  4 15:11:59 2016 GMT
            Not After : Jun  4 15:11:59 2017 GMT
        Subject: CN=localhost
        Subject Public Key Info:
            Public Key Algorithm: rsaEncryption
            RSA Public Key: (2048 bit)
                Modulus (2048 bit):
                    00:9a:c7:2c:01:f8:a4:3d:f8:72:40:39:ed:94:74:
                    8a:e8:d7:2f:59:fb:85:45:97:83:7f:f2:78:5b:be:
                    db:12:fd:7b:36:4c:92:75:1f:a1:0b:eb:ec:7b:9e:
                    2e:13:d7:81:94:09:27:0a:54:46:08:83:03:62:1d:
                    53:29:5e:18:31:95:84:47:9f:14:f1:3a:58:10:64:
                    24:4e:c0:d5:71:30:c1:26:2e:bc:6a:e0:d5:8e:c0:
                    66:dd:43:2c:09:ee:18:06:de:ba:36:ea:b3:3f:43:
                    34:70:2e:14:5b:09:1f:a0:b1:77:6c:52:f7:03:fe:
                    7a:ed:94:3d:b8:cf:f4:5f:07:03:68:79:3c:d8:ee:
                    ce:29:a8:15:6a:7b:11:ed:4f:0a:6c:6e:b4:e2:2a:
                    d6:60:e7:b9:2f:d0:a2:25:18:8a:01:d9:53:9e:12:
                    8f:96:06:0c:d9:ff:a0:7f:58:f8:9b:9e:29:7c:a0:
                    4c:76:4d:c6:c9:87:85:6f:ce:ab:4d:80:6f:b2:02:
                    2b:58:9d:c9:b0:27:96:77:a8:55:44:78:4d:ab:29:
                    2c:62:8c:e2:d6:86:4d:20:5c:6f:2e:af:21:85:8b:
                    78:0b:fa:a8:94:8d:75:05:6f:62:19:c7:45:8b:77:
                    5d:5a:dc:cb:5a:bc:7d:68:9d:0c:93:62:b0:e5:73:
                    31:c7
                Exponent: 65537 (0x10001)
    Signature Algorithm: sha1WithRSAEncryption
        1a:32:09:b4:c7:0c:a1:1a:fa:bc:d0:2b:21:8b:8c:97:e2:de:
        d3:93:d5:c4:cd:52:da:2d:54:52:eb:a2:b0:e4:5b:2f:ee:2f:
        87:ad:84:5b:62:e1:7f:39:8e:8c:bf:2d:d6:53:f4:b3:f3:41:
        26:06:fa:9d:b0:ba:c1:72:d2:c5:85:39:e4:33:de:64:cd:c2:
        8d:c0:11:4f:82:4b:4e:95:37:95:d9:4e:17:a4:e1:0e:b0:68:
        05:46:44:cb:c8:5f:59:7e:dc:58:b9:f9:fb:6c:da:c7:38:95:
        8d:1b:e9:92:6b:59:55:16:3a:f8:b5:62:b4:21:e0:2d:ee:cc:
        6c:7f:3c:a1:ef:fd:f2:e1:74:1a:63:b5:5b:06:0e:45:e8:43:
        3b:7f:91:bb:ea:11:ed:73:c5:6c:0f:d3:6d:e1:10:b6:fa:c8:
        e0:57:ef:c5:67:ba:5a:9a:1c:2f:83:c0:b7:04:67:9c:35:b9:
        20:da:c5:7b:6a:a5:17:01:64:75:65:bd:61:6d:43:ca:50:77:
        80:ce:e6:33:07:7f:a5:b2:9a:c0:67:4a:14:15:a3:6f:92:0c:
        42:67:2a:57:9c:e7:ba:73:c1:db:02:f4:f7:35:e7:23:a3:3d:
        f2:4a:9a:c5:1a:d9:77:b1:0a:9d:89:a4:cc:2f:3b:98:cd:ac:
        2c:df:81:0b
-----BEGIN CERTIFICATE-----
MIICnDCCAYQCAQEwDQYJKoZIhvcNAQEFBQAwFDESMBAGA1UEAxMJbG9jYWxob3N0
MB4XDTE2MDYwNDE1MTE1OVoXDTE3MDYwNDE1MTE1OVowFDESMBAGA1UEAxMJbG9j
YWxob3N0MIIBIjANBgkqhkiG9w0BAQEFAAOCAQ8AMIIBCgKCAQEAmscsAfikPfhy
QDntlHSK6NcvWfuFRZeDf/J4W77bEv17NkySdR+hC+vse54uE9eBlAknClRGCIMD
Yh1TKV4YMZWER58U8TpYEGQkTsDVcTDBJi68auDVjsBm3UMsCe4YBt66NuqzP0M0
cC4UWwkfoLF3bFL3A/567ZQ9uM/0XwcDaHk82O7OKagVansR7U8KbG604irWYOe5
L9CiJRiKAdlTnhKPlgYM2f+gf1j4m54pfKBMdk3GyYeFb86rTYBvsgIrWJ3JsCeW
d6hVRHhNqyksYozi1oZNIFxvLq8hhYt4C/qolI11BW9iGcdFi3ddWtzLWrx9aJ0M
k2Kw5XMxxwIDAQABMA0GCSqGSIb3DQEBBQUAA4IBAQAaMgm0xwyhGvq80Cshi4yX
4t7Tk9XEzVLaLVRS66Kw5Fsv7i+HrYRbYuF/OY6Mvy3WU/Sz80EmBvqdsLrBctLF
hTnkM95kzcKNwBFPgktOlTeV2U4XpOEOsGgFRkTLyF9ZftxYufn7bNrHOJWNG+mS
a1lVFjr4tWK0IeAt7sxsfzyh7/3y4XQaY7VbBg5F6EM7f5G76hHtc8VsD9Nt4RC2
+sjgV+/FZ7pamhwvg8C3BGecNbkg2sV7aqUXAWR1Zb1hbUPKUHeAzuYzB3+lsprA
Z0oUFaNvkgxCZypXnOe6c8HbAvT3Necjoz3ySprFGtl3sQqdiaTMLzuYzaws34EL
-----END CERTIFICATE-----
