Certificate:
    Data:
        Version: 1 (0x0)
        Serial Number: 2 (0x2)
        Signature Algorithm: sha1WithRSAEncryption
        Issuer: CN=localhost
        Validity
            Not Before: Oct 21 09:13:01 2016 GMT
            Not After : Oct 21 09:13:01 2017 GMT
        Subject: CN=localhost
        Subject Public Key Info:
            Public Key Algorithm: rsaEncryption
            RSA Public Key: (2048 bit)
                Modulus (2048 bit):
                    00:c2:63:33:3a:2e:ed:f5:52:74:ad:8f:61:0f:26:
                    58:8f:3c:77:5b:75:2e:cc:39:48:7d:9a:c4:98:f6:
                    b2:cf:ba:3c:f4:d0:42:fc:f2:d3:58:31:bb:5c:bb:
                    28:34:b0:81:50:b3:89:22:61:4b:44:4c:b3:e3:f8:
                    6c:7b:43:04:49:11:79:48:5a:cb:bb:4b:df:be:54:
                    24:b8:d8:7b:f6:95:13:cb:63:f2:ad:78:ab:30:3c:
                    ac:65:79:6e:40:7e:bd:80:e6:83:d1:19:ba:25:fa:
                    1e:4d:c5:78:0e:25:13:e2:c5:e0:26:9d:12:6d:61:
                    5c:7a:39:29:bc:d4:0e:4f:6f:3c:16:86:24:37:e3:
                    e2:b2:3d:2f:3f:4d:e0:92:36:b3:21:1f:e4:ea:e5:
                    9d:c7:bf:d7:f9:2d:22:a9:17:40:f6:5d:33:e4:f7:
                    70:cd:ed:b2:b8:34:63:27:f3:e2:e8:14:e3:e1:b4:
                    40:17:9d:f0:53:b8:8a:a6:2c:8f:17:91:96:55:f2:
                    95:87:3d:dc:d8:00:56:b4:c0:00:6a:b0:35:99:6d:
                    9b:52:2a:97:a3:4f:3f:09:51:bc:71:1c:79:73:33:
                    e8:a4:22:a7:42:df:b4:9b:83:89:ad:3c:fd:28:be:
                    20:09:ae:3b:ac:a9:a0:ff:4e:19:64:33:d6:fa:56:
                    e1:4b
                Exponent: 65537 (0x10001)
    Signature Algorithm: sha1WithRSAEncryption
        5a:00:fb:c2:16:c2:fc:51:8e:5c:61:1a:81:56:75:1a:81:4a:
        98:06:cc:3f:a1:d6:7a:98:63:d1:52:c8:77:46:9f:be:8c:96:
        e7:bc:f4:f0:c1:d0:37:21:6d:01:7d:fe:45:83:67:4d:db:ce:
        6e:b9:5a:76:58:5c:dd:5f:9b:09:0a:1d:9c:e5:48:3a:9c:49:
        31:83:10:43:65:81:5d:fb:c6:76:a1:36:e9:62:c8:b4:14:9c:
        ad:a9:b9:d3:5b:af:24:0d:28:c3:92:60:97:50:f9:fe:04:4f:
        0e:c2:96:71:cb:cb:43:4b:82:3d:ef:d6:6a:42:df:ff:6f:2d:
        66:4c:84:c2:c6:29:7f:07:bd:16:a3:37:46:26:2b:78:b9:60:
        2c:64:73:19:51:03:70:6c:58:6e:74:a2:8e:26:f4:c8:19:b0:
        ab:77:3e:05:0d:3f:d5:fa:52:34:45:3e:55:9b:53:db:f5:be:
        34:32:f4:40:1b:a5:18:60:d5:43:8a:ff:dc:83:4c:0e:17:96:
        3d:ca:35:0a:fe:99:d4:d6:4d:99:7b:e7:2e:c8:68:a7:c6:32:
        b2:98:45:a0:a7:ea:06:f3:95:91:7a:f7:9d:4f:8b:84:95:8b:
        53:d2:04:a6:be:4f:1c:de:b9:e0:79:6c:95:3e:85:4d:15:1b:
        01:cd:e7:63
-----BEGIN CERTIFICATE-----
MIICnDCCAYQCAQIwDQYJKoZIhvcNAQEFBQAwFDESMBAGA1UEAxMJbG9jYWxob3N0
MB4XDTE2MTAyMTA5MTMwMVoXDTE3MTAyMTA5MTMwMVowFDESMBAGA1UEAxMJbG9j
YWxob3N0MIIBIjANBgkqhkiG9w0BAQEFAAOCAQ8AMIIBCgKCAQEAwmMzOi7t9VJ0
rY9hDyZYjzx3W3UuzDlIfZrEmPayz7o89NBC/PLTWDG7XLsoNLCBULOJImFLREyz
4/hse0MESRF5SFrLu0vfvlQkuNh79pUTy2PyrXirMDysZXluQH69gOaD0Rm6Jfoe
TcV4DiUT4sXgJp0SbWFcejkpvNQOT288FoYkN+Pisj0vP03gkjazIR/k6uWdx7/X
+S0iqRdA9l0z5Pdwze2yuDRjJ/Pi6BTj4bRAF53wU7iKpiyPF5GWVfKVhz3c2ABW
tMAAarA1mW2bUiqXo08/CVG8cRx5czPopCKnQt+0m4OJrTz9KL4gCa47rKmg/04Z
ZDPW+lbhSwIDAQABMA0GCSqGSIb3DQEBBQUAA4IBAQBaAPvCFsL8UY5cYRqBVnUa
gUqYBsw/odZ6mGPRUsh3Rp++jJbnvPTwwdA3IW0Bff5Fg2dN285uuVp2WFzdX5sJ
Ch2c5Ug6nEkxgxBDZYFd+8Z2oTbpYsi0FJytqbnTW68kDSjDkmCXUPn+BE8OwpZx
y8tDS4I979ZqQt//by1mTITCxil/B70WozdGJit4uWAsZHMZUQNwbFhudKKOJvTI
GbCrdz4FDT/V+lI0RT5Vm1Pb9b40MvRAG6UYYNVDiv/cg0wOF5Y9yjUK/pnU1k2Z
e+cuyGinxjKymEWgp+oG85WRevedT4uElYtT0gSmvk8c3rngeWyVPoVNFRsBzedj
-----END CERTIFICATE-----
