Certificate:
    Data:
        Version: 1 (0x0)
        Serial Number: 2 (0x2)
        Signature Algorithm: sha1WithRSAEncryption
        Issuer: CN=localhost
        Validity
            Not Before: Jun  4 15:12:56 2016 GMT
            Not After : Jun  4 15:12:56 2017 GMT
        Subject: CN=localhost
        Subject Public Key Info:
            Public Key Algorithm: rsaEncryption
            RSA Public Key: (2048 bit)
                Modulus (2048 bit):
                    00:99:67:71:9f:77:56:7d:88:8b:3f:74:e4:35:3c:
                    d7:7f:fe:58:24:7a:67:ff:c0:27:2f:e1:35:00:5e:
                    cf:d1:3e:1d:83:f2:e2:09:e4:06:88:2c:de:35:de:
                    84:2f:ba:2a:7b:85:fc:ca:52:16:fa:12:59:94:27:
                    24:3f:a1:0d:af:fe:b2:9e:ae:af:a9:49:0e:a1:a1:
                    65:1f:d0:89:e2:c5:51:04:ae:a1:92:53:b4:40:d4:
                    89:83:49:da:7b:45:87:03:b8:61:ac:52:e7:2d:af:
                    c2:d3:c5:d2:96:9b:f5:7b:e5:cf:e9:46:ea:24:d3:
                    10:62:6f:af:5f:72:4b:71:7e:e8:68:c3:e0:17:d0:
                    3a:a5:6d:ec:eb:6c:d8:5a:b7:9b:89:83:d5:71:8b:
                    24:4f:a9:98:87:11:44:10:37:f4:cb:2a:f8:f8:cc:
                    a4:48:c8:94:66:0c:0d:b0:a1:ae:db:f0:50:09:60:
                    87:5e:65:46:18:aa:6a:e5:43:98:f0:08:1c:5f:03:
                    a8:c1:1b:1d:8f:9d:8b:0a:bb:fe:63:46:ad:82:17:
                    c6:ce:8f:b9:c3:15:ce:a2:b1:ce:6c:aa:16:2d:aa:
                    80:ca:f8:9c:9d:1f:b7:8f:a4:04:b8:7f:54:e8:67:
                    9c:66:29:38:08:1f:9f:1a:8b:54:28:3f:5f:61:6e:
                    21:33
                Exponent: 65537 (0x10001)
    Signature Algorithm: sha1WithRSAEncryption
        b6:51:3f:20:28:87:92:9f:e1:27:0c:d6:b4:72:6d:ce:a2:bd:
        34:70:1f:c4:fd:c2:ff:8d:12:9c:55:1a:f1:4a:8b:46:0e:21:
        9f:bf:72:88:fa:66:5d:43:93:52:d3:47:06:24:8c:c1:ae:7e:
        36:35:88:ff:5c:f8:85:f9:b4:f8:29:a9:36:00:11:2e:32:c0:
        14:23:95:df:2b:ab:a0:0b:ca:e9:8f:98:58:7c:46:22:f9:1a:
        ae:0b:0c:3e:7a:43:09:cb:4e:f2:e2:d4:28:3c:44:43:12:07:
        9f:c8:93:00:e4:04:c0:8c:f1:c1:a1:90:e2:7d:5d:81:90:85:
        a0:79:6b:ba:3f:80:60:4e:e9:2e:01:6e:3d:73:78:2f:13:c8:
        c3:8e:e1:6a:41:4d:be:5d:60:ea:b4:66:bc:f5:b2:4f:f0:3f:
        a0:1d:32:1e:d7:f4:75:d4:81:47:dd:ed:ff:18:6d:23:63:c5:
        ce:8d:17:68:e8:d1:aa:1a:7c:1d:da:12:a4:fa:b8:ba:46:36:
        3f:3e:ef:88:7f:f5:72:3c:e4:72:a1:ce:1e:96:e0:60:b9:68:
        78:9d:f7:70:3c:6e:c0:4f:77:a0:34:e3:00:86:9d:2c:65:34:
        28:ee:dc:d6:19:af:f9:d6:43:bd:66:98:f3:79:58:5e:0a:79:
        bf:de:39:59
-----BEGIN CERTIFICATE-----
MIICnDCCAYQCAQIwDQYJKoZIhvcNAQEFBQAwFDESMBAGA1UEAxMJbG9jYWxob3N0
MB4XDTE2MDYwNDE1MTI1NloXDTE3MDYwNDE1MTI1NlowFDESMBAGA1UEAxMJbG9j
YWxob3N0MIIBIjANBgkqhkiG9w0BAQEFAAOCAQ8AMIIBCgKCAQEAmWdxn3dWfYiL
P3TkNTzXf/5YJHpn/8AnL+E1AF7P0T4dg/LiCeQGiCzeNd6EL7oqe4X8ylIW+hJZ
lCckP6ENr/6ynq6vqUkOoaFlH9CJ4sVRBK6hklO0QNSJg0nae0WHA7hhrFLnLa/C
08XSlpv1e+XP6UbqJNMQYm+vX3JLcX7oaMPgF9A6pW3s62zYWrebiYPVcYskT6mY
hxFEEDf0yyr4+MykSMiUZgwNsKGu2/BQCWCHXmVGGKpq5UOY8AgcXwOowRsdj52L
Crv+Y0atghfGzo+5wxXOorHObKoWLaqAyvicnR+3j6QEuH9U6GecZik4CB+fGotU
KD9fYW4hMwIDAQABMA0GCSqGSIb3DQEBBQUAA4IBAQC2UT8gKIeSn+EnDNa0cm3O
or00cB/E/cL/jRKcVRrxSotGDiGfv3KI+mZdQ5NS00cGJIzBrn42NYj/XPiF+bT4
Kak2ABEuMsAUI5XfK6ugC8rpj5hYfEYi+RquCww+ekMJy07y4tQoPERDEgefyJMA
5ATAjPHBoZDifV2BkIWgeWu6P4BgTukuAW49c3gvE8jDjuFqQU2+XWDqtGa89bJP
8D+gHTIe1/R11IFH3e3/GG0jY8XOjRdo6NGqGnwd2hKk+ri6RjY/Pu+If/VyPORy
oc4eluBguWh4nfdwPG7AT3egNOMAhp0sZTQo7tzWGa/51kO9ZpjzeVheCnm/3jlZ
-----END CERTIFICATE-----
