Certificate:
    Data:
        Version: 1 (0x0)
        Serial Number: 2 (0x2)
    Signature Algorithm: sha1WithRSAEncryption
        Issuer: CN=localhost
        Validity
            Not Before: Oct 27 08:52:36 2017 GMT
            Not After : Oct 27 08:52:36 2018 GMT
        Subject: CN=localhost
        Subject Public Key Info:
            Public Key Algorithm: rsaEncryption
                Public-Key: (2048 bit)
                Modulus:
                    00:a8:d4:67:aa:d1:65:68:97:08:5f:8d:12:d0:15:
                    53:95:e6:cb:f0:a0:f8:87:39:8e:a5:3b:a1:72:c4:
                    6e:4a:3b:0d:e2:ae:5e:6c:9d:8b:9a:50:b9:1a:29:
                    1c:b5:c0:02:98:93:61:e0:5f:72:32:ca:1e:99:df:
                    89:33:84:e6:0e:6b:7d:ab:5b:45:a0:e1:9f:d2:7e:
                    35:31:8a:c9:fb:09:0c:32:2a:8e:af:d7:26:9b:d8:
                    3b:e6:6a:69:e6:40:d1:a4:fe:41:b8:da:94:7d:73:
                    ab:86:e4:5c:b2:a2:ae:b5:e4:8b:90:81:35:46:a5:
                    c0:9c:03:c7:21:cc:7d:8c:b1:87:5f:08:37:e1:bd:
                    44:67:6e:b3:9b:d2:38:36:59:f3:2e:dc:1c:fc:66:
                    bb:b4:79:08:df:9c:47:5d:d0:a6:46:79:2e:21:d9:
                    97:1a:11:f5:2e:39:0f:96:0e:c6:97:45:a7:b6:ef:
                    6f:d5:c8:f5:61:8b:26:06:1c:e1:5b:2f:16:6e:61:
                    a7:cb:7d:bf:ce:72:8b:6c:d8:56:b2:e9:61:ab:47:
                    52:e6:bd:49:5d:58:72:cd:48:06:70:a2:a4:10:8e:
                    61:8e:48:76:d9:51:e7:e8:1b:c2:f2:b7:3a:a8:bb:
                    dc:8d:ff:79:23:77:21:d6:1f:52:f0:81:14:e4:09:
                    05:19
                Exponent: 65537 (0x10001)
    Signature Algorithm: sha1WithRSAEncryption
         48:0b:ec:ca:d8:9a:ce:0f:bb:82:06:c7:f9:7a:4b:8f:b0:92:
         ae:87:cd:3c:8e:44:e0:5c:52:7d:d6:55:33:1b:79:cc:ee:74:
         7c:58:a8:ef:b0:1e:d1:f5:2f:89:7c:70:bf:70:97:f6:e9:6d:
         55:ad:a4:47:e9:5e:bc:31:2c:40:16:2d:99:2d:c5:e6:24:68:
         cc:d1:58:4f:f2:b3:f4:7b:01:d5:33:2b:f4:43:0e:5b:2b:90:
         fc:38:56:48:0c:52:19:d1:c4:74:6f:f7:62:73:b7:11:90:60:
         d7:18:06:db:40:1b:b9:e0:12:7a:86:b8:85:cc:cf:7e:a1:a8:
         06:37:0a:69:89:e1:11:6f:1b:62:d2:0f:30:f0:45:94:3d:0a:
         8c:02:40:5a:20:02:de:31:ab:ec:15:d3:1d:8d:cd:a4:48:f0:
         22:24:7c:08:82:23:b0:00:15:29:e2:b8:94:11:cb:38:c7:bb:
         55:6e:f2:b8:98:d0:67:9c:6c:3f:71:ca:68:e8:59:9d:2f:7b:
         29:d4:c0:ef:34:e3:61:6a:2d:15:68:ae:76:a4:24:56:00:89:
         0f:60:4b:3b:cb:e6:7b:7c:59:fc:09:a0:f7:cb:c6:52:52:9e:
         1a:4e:02:23:36:e4:c9:72:0f:01:f7:31:dd:81:2f:f5:68:44:
         ed:e1:40:e2
-----BEGIN CERTIFICATE-----
MIICnDCCAYQCAQIwDQYJKoZIhvcNAQEFBQAwFDESMBAGA1UEAwwJbG9jYWxob3N0
MB4XDTE3MTAyNzA4NTIzNloXDTE4MTAyNzA4NTIzNlowFDESMBAGA1UEAwwJbG9j
YWxob3N0MIIBIjANBgkqhkiG9w0BAQEFAAOCAQ8AMIIBCgKCAQEAqNRnqtFlaJcI
X40S0BVTlebL8KD4hzmOpTuhcsRuSjsN4q5ebJ2LmlC5GikctcACmJNh4F9yMsoe
md+JM4TmDmt9q1tFoOGf0n41MYrJ+wkMMiqOr9cmm9g75mpp5kDRpP5BuNqUfXOr
huRcsqKuteSLkIE1RqXAnAPHIcx9jLGHXwg34b1EZ26zm9I4NlnzLtwc/Ga7tHkI
35xHXdCmRnkuIdmXGhH1LjkPlg7Gl0Wntu9v1cj1YYsmBhzhWy8WbmGny32/znKL
bNhWsulhq0dS5r1JXVhyzUgGcKKkEI5hjkh22VHn6BvC8rc6qLvcjf95I3ch1h9S
8IEU5AkFGQIDAQABMA0GCSqGSIb3DQEBBQUAA4IBAQBIC+zK2JrOD7uCBsf5ekuP
sJKuh808jkTgXFJ91lUzG3nM7nR8WKjvsB7R9S+JfHC/cJf26W1VraRH6V68MSxA
Fi2ZLcXmJGjM0VhP8rP0ewHVMyv0Qw5bK5D8OFZIDFIZ0cR0b/dic7cRkGDXGAbb
QBu54BJ6hriFzM9+oagGNwppieERbxti0g8w8EWUPQqMAkBaIALeMavsFdMdjc2k
SPAiJHwIgiOwABUp4riUEcs4x7tVbvK4mNBnnGw/ccpo6FmdL3sp1MDvNONhai0V
aK52pCRWAIkPYEs7y+Z7fFn8CaD3y8ZSUp4aTgIjNuTJcg8B9zHdgS/1aETt4UDi
-----END CERTIFICATE-----
