Certificate:
    Data:
        Version: 3 (0x2)
        Serial Number: 2 (0x2)
        Signature Algorithm: sha256WithRSAEncryption
        Issuer: CN=Root CA
        Validity
            Not Before: May 27 17:06:07 2022 GMT
            Not After : May 19 17:06:07 2052 GMT
        Subject: CN=Intermediate CA
        Subject Public Key Info:
            Public Key Algorithm: rsaEncryption
                RSA Public-Key: (2048 bit)
                Modulus:
                    00:c6:a6:1d:24:5f:c3:13:d1:83:9e:a7:10:da:20:
                    6d:4f:8e:eb:3e:0b:6a:55:bd:66:f5:39:8a:8a:a9:
                    35:9e:3b:0e:5d:e2:47:01:45:52:3a:23:a2:f2:46:
                    ef:4c:02:de:12:fd:8f:d5:2d:dd:5f:3b:9f:75:00:
                    59:1f:33:52:c7:43:45:84:37:c8:88:4a:75:af:9d:
                    b8:e9:ab:01:f5:b9:8d:8f:d6:c6:86:f8:6c:a4:67:
                    42:39:c3:7a:35:ce:77:01:0f:07:e4:fb:d5:61:8a:
                    2a:a3:05:ad:5d:7b:c4:67:f1:aa:c8:f8:48:0e:40:
                    20:1b:d9:30:b5:df:27:b9:a9:2a:bc:9c:26:2b:8a:
                    a3:3d:60:b1:5c:8b:59:cd:ce:f9:91:8b:83:bc:62:
                    a5:68:0e:02:33:a9:17:73:1e:74:35:c1:e4:d7:79:
                    f8:e1:69:da:d5:78:a3:41:c3:53:3a:b4:67:8a:fe:
                    7c:cc:03:59:51:a6:88:15:56:c6:83:a9:42:78:7c:
                    4a:e9:7f:ab:87:b0:b3:30:86:7a:8a:6f:9e:f0:65:
                    75:56:c7:d9:e5:cd:a1:9f:73:ce:ef:b3:0f:4d:59:
                    b0:5f:92:fa:03:ec:35:c7:60:3c:40:2d:c7:d9:f6:
                    a0:58:16:39:98:1e:73:6b:64:86:64:a5:f4:15:f2:
                    03:33
                Exponent: 65537 (0x10001)
        X509v3 extensions:
            X509v3 Basic Constraints: 
                CA:TRUE
    Signature Algorithm: sha256WithRSAEncryption
         73:56:c9:93:86:52:ad:a9:a1:87:e8:1b:c6:0e:39:0b:c9:02:
         b7:83:88:11:63:b4:f5:a0:06:0f:26:7c:f9:67:cf:a6:e4:f6:
         ec:83:1c:67:c5:70:26:3c:e6:36:40:8f:08:20:37:f9:97:d4:
         6e:82:73:99:da:18:18:5d:69:f4:25:0c:3e:9b:4f:f6:80:20:
         7c:82:2d:c9:75:20:16:f6:99:cf:3d:bf:df:69:63:7f:1b:c0:
         0a:9f:e7:c2:46:04:cb:49:34:b4:0e:84:09:be:54:94:3f:da:
         a7:5a:01:98:72:ba:de:10:66:80:f4:46:88:34:70:92:63:d6:
         31:93:f1:42:93:ab:da:c8:59:c6:d9:ef:96:57:92:f0:88:d7:
         13:2e:fe:87:8a:63:98:e8:95:58:9b:74:48:37:89:1a:8f:5f:
         7e:b4:20:0a:10:7e:04:48:0f:57:c9:a9:ca:7c:7a:1e:f9:c5:
         bd:61:0e:f7:43:d9:a6:9f:f6:1a:d0:98:93:11:53:14:ba:e5:
         0a:ec:8e:28:d5:4c:ad:9c:be:7e:5f:73:08:9d:11:70:83:34:
         01:64:43:6c:75:2d:13:6a:24:29:de:62:24:07:9d:22:06:ab:
         24:c6:f2:5c:11:36:81:98:7f:bd:11:8a:05:2f:14:21:69:d7:
         6b:b4:b3:94
-----BEGIN CERTIFICATE-----
MIICuTCCAaGgAwIBAgIBAjANBgkqhkiG9w0BAQsFADASMRAwDgYDVQQDDAdSb290
IENBMCAXDTIyMDUyNzE3MDYwN1oYDzIwNTIwNTE5MTcwNjA3WjAaMRgwFgYDVQQD
DA9JbnRlcm1lZGlhdGUgQ0EwggEiMA0GCSqGSIb3DQEBAQUAA4IBDwAwggEKAoIB
AQDGph0kX8MT0YOepxDaIG1Pjus+C2pVvWb1OYqKqTWeOw5d4kcBRVI6I6LyRu9M
At4S/Y/VLd1fO591AFkfM1LHQ0WEN8iISnWvnbjpqwH1uY2P1saG+GykZ0I5w3o1
zncBDwfk+9VhiiqjBa1de8Rn8arI+EgOQCAb2TC13ye5qSq8nCYriqM9YLFci1nN
zvmRi4O8YqVoDgIzqRdzHnQ1weTXefjhadrVeKNBw1M6tGeK/nzMA1lRpogVVsaD
qUJ4fErpf6uHsLMwhnqKb57wZXVWx9nlzaGfc87vsw9NWbBfkvoD7DXHYDxALcfZ
9qBYFjmYHnNrZIZkpfQV8gMzAgMBAAGjEDAOMAwGA1UdEwQFMAMBAf8wDQYJKoZI
hvcNAQELBQADggEBAHNWyZOGUq2poYfoG8YOOQvJAreDiBFjtPWgBg8mfPlnz6bk
9uyDHGfFcCY85jZAjwggN/mX1G6Cc5naGBhdafQlDD6bT/aAIHyCLcl1IBb2mc89
v99pY38bwAqf58JGBMtJNLQOhAm+VJQ/2qdaAZhyut4QZoD0Rog0cJJj1jGT8UKT
q9rIWcbZ75ZXkvCI1xMu/oeKY5jolVibdEg3iRqPX360IAoQfgRID1fJqcp8eh75
xb1hDvdD2aaf9hrQmJMRUxS65QrsjijVTK2cvn5fcwidEXCDNAFkQ2x1LRNqJCne
YiQHnSIGqyTG8lwRNoGYf70RigUvFCFp12u0s5Q=
-----END CERTIFICATE-----
