Certificate:
    Data:
        Version: 1 (0x0)
        Serial Number: 3 (0x3)
        Signature Algorithm: sha256WithRSAEncryption
        Issuer: CN=Root CA
        Validity
            Not Before: May 27 17:06:10 2022 GMT
            Not After : May 19 17:06:10 2052 GMT
        Subject: CN=client
        Subject Public Key Info:
            Public Key Algorithm: rsaEncryption
                RSA Public-Key: (2048 bit)
                Modulus:
                    00:c8:55:7f:c3:b3:d4:64:6d:f9:68:ee:fa:4d:16:
                    92:b5:55:7f:d9:e8:2d:a6:51:8c:b9:ed:fd:6a:f0:
                    4f:67:73:ae:bd:40:64:de:74:c1:c2:7c:bc:96:6d:
                    3f:8d:49:a6:cc:1c:8b:f5:30:15:e7:3e:a3:9e:36:
                    c9:4d:92:2c:c4:f1:02:a6:ee:3d:5b:98:e7:95:af:
                    00:f4:d1:ce:8e:52:74:84:1a:3a:a1:dd:4b:06:e4:
                    81:a8:08:90:53:92:0f:bf:79:c6:a9:1e:7c:56:75:
                    9b:f4:7b:68:dc:1c:4d:4c:45:19:61:42:0e:16:2d:
                    f7:c1:91:76:cb:71:1a:23:61:55:83:b8:26:cb:65:
                    2d:8f:fd:78:36:71:f4:c5:5f:4f:9c:52:84:73:67:
                    ad:ee:dd:40:c5:b4:c7:81:17:45:1f:eb:d3:82:89:
                    80:5a:fa:aa:57:0b:cf:0f:91:12:3f:56:cf:75:e5:
                    87:c3:10:26:a3:de:d0:99:ca:0d:df:28:df:3e:b7:
                    ae:43:9a:05:e1:15:09:7e:05:80:07:2f:8a:b0:e4:
                    28:28:3e:d6:0f:22:2e:f5:c1:0f:9b:4d:9f:71:75:
                    26:14:3e:37:1f:01:f0:78:b4:d5:ff:09:51:93:06:
                    39:73:88:2f:aa:a7:f7:e0:ad:e1:97:af:2a:8f:33:
                    05:5d
                Exponent: 65537 (0x10001)
    Signature Algorithm: sha256WithRSAEncryption
         47:77:0f:66:c7:04:86:58:b9:b2:a9:f9:20:17:f3:54:db:81:
         b0:a0:ec:5c:f3:a6:90:1f:47:8a:d3:19:73:59:cf:2a:9a:7b:
         b7:c9:10:fe:fb:96:93:81:6a:95:83:0f:68:9c:52:4f:34:d7:
         32:83:93:c3:c2:4c:2e:10:f9:61:5a:a7:89:7f:37:6f:9b:f8:
         26:7d:85:87:88:de:0c:89:70:0a:9a:ae:81:b6:08:c2:86:01:
         6d:b1:8d:7a:80:17:e8:28:3d:88:ea:bb:7a:f2:c0:cb:32:80:
         5e:dd:05:c2:08:5b:55:b1:e7:e3:82:12:d3:03:a4:ae:4e:9d:
         91:ee:9d:7e:a3:63:46:d9:f1:af:89:a5:9c:15:ae:cc:0f:dd:
         f1:8a:42:2a:1f:23:93:78:25:af:5a:ba:2d:88:d5:00:fa:4e:
         a4:10:46:14:b8:a1:ed:74:03:c5:29:7c:d8:3f:6e:6c:79:0d:
         5c:cb:e9:38:09:4b:f7:aa:f2:c3:c4:5e:5d:eb:44:d7:c0:ea:
         83:a3:18:32:0c:3d:2e:67:ec:84:66:15:a2:75:fa:69:21:07:
         70:74:00:bc:57:f7:20:f9:df:17:f7:34:a4:66:a9:c4:bd:75:
         5b:d3:f3:81:0c:2d:ae:51:88:3a:c9:6e:5b:0f:5b:bc:18:71:
         10:96:ff:83
-----BEGIN CERTIFICATE-----
MIICmTCCAYECAQMwDQYJKoZIhvcNAQELBQAwEjEQMA4GA1UEAwwHUm9vdCBDQTAg
Fw0yMjA1MjcxNzA2MTBaGA8yMDUyMDUxOTE3MDYxMFowETEPMA0GA1UEAxMGY2xp
ZW50MIIBIjANBgkqhkiG9w0BAQEFAAOCAQ8AMIIBCgKCAQEAyFV/w7PUZG35aO76
TRaStVV/2egtplGMue39avBPZ3OuvUBk3nTBwny8lm0/jUmmzByL9TAV5z6jnjbJ
TZIsxPECpu49W5jnla8A9NHOjlJ0hBo6od1LBuSBqAiQU5IPv3nGqR58VnWb9Hto
3BxNTEUZYUIOFi33wZF2y3EaI2FVg7gmy2Utj/14NnH0xV9PnFKEc2et7t1AxbTH
gRdFH+vTgomAWvqqVwvPD5ESP1bPdeWHwxAmo97QmcoN3yjfPreuQ5oF4RUJfgWA
By+KsOQoKD7WDyIu9cEPm02fcXUmFD43HwHweLTV/wlRkwY5c4gvqqf34K3hl68q
jzMFXQIDAQABMA0GCSqGSIb3DQEBCwUAA4IBAQBHdw9mxwSGWLmyqfkgF/NU24Gw
oOxc86aQH0eK0xlzWc8qmnu3yRD++5aTgWqVgw9onFJPNNcyg5PDwkwuEPlhWqeJ
fzdvm/gmfYWHiN4MiXAKmq6BtgjChgFtsY16gBfoKD2I6rt68sDLMoBe3QXCCFtV
sefjghLTA6SuTp2R7p1+o2NG2fGviaWcFa7MD93xikIqHyOTeCWvWrotiNUA+k6k
EEYUuKHtdAPFKXzYP25seQ1cy+k4CUv3qvLDxF5d60TXwOqDoxgyDD0uZ+yEZhWi
dfppIQdwdAC8V/cg+d8X9zSkZqnEvXVb0/OBDC2uUYg6yW5bD1u8GHEQlv+D
-----END CERTIFICATE-----
