Certificate:
    Data:
        Version: 1 (0x0)
        Serial Number: 3 (0x3)
    Signature Algorithm: sha1WithRSAEncryption
        Issuer: CN=localhost
        Validity
            Not Before: Oct 27 08:54:53 2017 GMT
            Not After : Oct 27 08:54:53 2018 GMT
        Subject: CN=localhost
        Subject Public Key Info:
            Public Key Algorithm: rsaEncryption
                Public-Key: (2048 bit)
                Modulus:
                    00:b6:a3:14:47:7a:fe:28:31:2b:6d:24:84:74:4d:
                    d1:98:01:9a:d6:77:d0:9e:7c:7f:d7:85:77:2e:63:
                    e3:8a:dc:cf:6f:03:d0:44:cc:d9:5c:5b:64:bc:47:
                    a4:0b:46:8c:ef:a1:2c:71:bc:5d:65:58:d4:8a:51:
                    a8:01:96:08:d3:da:05:1b:6a:59:6f:ae:8d:d5:bb:
                    7a:e3:e8:6a:c8:d8:56:34:09:dc:35:44:2e:68:0c:
                    29:0f:6c:42:01:08:93:f1:29:fa:1f:04:3c:b4:32:
                    00:31:30:df:87:22:f1:7c:8d:96:0e:df:c2:27:8b:
                    3c:d8:65:5e:b1:96:a2:7c:00:b0:db:1a:3e:95:87:
                    9f:c5:96:98:c2:a4:29:18:4a:b9:42:e6:96:60:6a:
                    51:2a:ba:29:4e:a9:4f:fa:8a:e9:d5:24:c1:50:a6:
                    74:4f:76:ef:57:4f:e8:28:fe:bf:da:4a:63:af:a2:
                    91:68:d8:74:d5:2a:ae:79:7c:81:2e:32:60:ab:58:
                    3a:4e:1d:dc:b7:fb:19:d2:23:ae:c1:f2:20:b3:ac:
                    0a:19:d0:4c:61:91:cd:3b:47:5c:95:ae:a5:92:80:
                    56:aa:c8:33:64:3d:97:0c:e7:86:b2:b2:73:ff:3e:
                    af:4c:9f:77:38:0c:c5:61:d9:b2:b1:ea:87:e8:f4:
                    d1:6d
                Exponent: 65537 (0x10001)
    Signature Algorithm: sha1WithRSAEncryption
         0c:87:f2:d6:8a:5a:4d:a2:d6:7c:98:58:73:fd:da:3e:60:75:
         42:ab:46:36:0e:e7:9c:7a:8f:6f:00:6b:ea:e6:df:64:34:a3:
         92:67:79:35:59:ec:fa:2a:94:4d:db:c7:9c:de:bf:54:e4:24:
         ef:86:6a:2e:be:10:2e:ba:89:03:4f:6c:72:9d:a2:58:b2:1b:
         c6:9c:0e:5a:e0:0b:9e:93:33:98:a0:29:6c:f6:75:7c:c4:f8:
         0c:48:c2:ef:3d:15:34:6d:b0:db:e7:c0:a8:cd:56:6d:12:f3:
         6b:23:0c:ce:43:37:20:86:60:72:73:75:e1:4d:94:30:12:9c:
         65:01:02:84:7e:95:95:76:29:9a:27:f5:07:3f:a0:8a:cf:b9:
         0b:f8:47:b4:00:40:f4:bf:a8:67:b8:aa:4d:51:cb:c0:7f:bd:
         fb:07:5e:d5:4b:f9:c8:63:a4:7e:68:4e:d5:2c:55:68:c2:85:
         78:32:07:04:41:df:f0:44:c1:4b:8a:c4:f2:45:9a:25:0b:5f:
         58:db:29:59:06:36:99:e0:1e:05:8f:3e:0f:94:16:d7:ae:36:
         e7:62:80:3b:dc:2b:76:67:9e:22:29:f4:22:91:10:18:29:fa:
         0d:63:86:99:2b:62:5c:fa:d3:d5:17:ca:6f:4a:5c:b9:64:b4:
         26:f0:b3:d9
-----BEGIN CERTIFICATE-----
MIICnDCCAYQCAQMwDQYJKoZIhvcNAQEFBQAwFDESMBAGA1UEAwwJbG9jYWxob3N0
MB4XDTE3MTAyNzA4NTQ1M1oXDTE4MTAyNzA4NTQ1M1owFDESMBAGA1UEAxMJbG9j
YWxob3N0MIIBIjANBgkqhkiG9w0BAQEFAAOCAQ8AMIIBCgKCAQEAtqMUR3r+KDEr
bSSEdE3RmAGa1nfQnnx/14V3LmPjitzPbwPQRMzZXFtkvEekC0aM76EscbxdZVjU
ilGoAZYI09oFG2pZb66N1bt64+hqyNhWNAncNUQuaAwpD2xCAQiT8Sn6HwQ8tDIA
MTDfhyLxfI2WDt/CJ4s82GVesZaifACw2xo+lYefxZaYwqQpGEq5QuaWYGpRKrop
TqlP+orp1STBUKZ0T3bvV0/oKP6/2kpjr6KRaNh01SqueXyBLjJgq1g6Th3ct/sZ
0iOuwfIgs6wKGdBMYZHNO0dcla6lkoBWqsgzZD2XDOeGsrJz/z6vTJ93OAzFYdmy
seqH6PTRbQIDAQABMA0GCSqGSIb3DQEBBQUAA4IBAQAMh/LWilpNotZ8mFhz/do+
YHVCq0Y2Dueceo9vAGvq5t9kNKOSZ3k1Wez6KpRN28ec3r9U5CTvhmouvhAuuokD
T2xynaJYshvGnA5a4AuekzOYoCls9nV8xPgMSMLvPRU0bbDb58CozVZtEvNrIwzO
QzcghmByc3XhTZQwEpxlAQKEfpWVdimaJ/UHP6CKz7kL+Ee0AED0v6hnuKpNUcvA
f737B17VS/nIY6R+aE7VLFVowoV4MgcEQd/wRMFLisTyRZolC19Y2ylZBjaZ4B4F
jz4PlBbXrjbnYoA73Ct2Z54iKfQikRAYKfoNY4aZK2Jc+tPVF8pvSly5ZLQm8LPZ
-----END CERTIFICATE-----
