Certificate:
    Data:
        Version: 1 (0x0)
        Serial Number: 3 (0x3)
    Signature Algorithm: sha256WithRSAEncryption
        Issuer: CN=Root CA
        Validity
            Not Before: May 26 11:36:52 2018 GMT
            Not After : May 23 11:36:52 2028 GMT
        Subject: CN=client
        Subject Public Key Info:
            Public Key Algorithm: rsaEncryption
                Public-Key: (2048 bit)
                Modulus:
                    00:d5:98:27:9c:2d:d5:19:53:dd:7b:87:07:95:cf:
                    82:6a:bd:9f:6f:64:48:b5:ac:7f:81:1b:df:07:61:
                    f4:51:fe:1d:d0:6a:86:f1:3c:89:99:bb:78:73:28:
                    76:7e:30:f6:e6:f7:81:ee:9c:b3:c0:54:0f:72:66:
                    1b:d9:31:3a:0d:7c:eb:83:e1:35:0f:04:f9:68:06:
                    e3:73:c0:17:d9:93:63:b8:09:a5:de:1b:86:a2:95:
                    55:94:7e:6e:6d:fe:5f:91:0f:fe:79:cd:82:ae:87:
                    0d:7f:56:5f:65:70:ea:f2:17:65:c0:98:f4:36:17:
                    58:30:10:a2:bb:c2:dd:40:93:cc:f0:f3:fc:9e:62:
                    00:6f:d7:f1:7e:89:b0:8c:bd:1e:85:56:3f:40:04:
                    11:1f:4c:cf:a8:3a:ce:28:cb:9d:68:b5:4b:f4:87:
                    ad:c6:a9:88:17:30:9c:8b:5f:ba:be:00:65:9d:0b:
                    7b:2b:c3:02:d0:44:eb:64:ce:2e:f2:d3:48:3f:62:
                    bc:97:52:82:2a:75:71:08:ec:2a:cd:2f:7e:6b:65:
                    77:19:e4:b7:c6:47:01:57:f5:eb:d7:d7:53:e9:4f:
                    73:92:85:89:6c:24:17:05:13:d2:8c:6a:d4:68:21:
                    67:7a:c5:42:a5:c5:39:34:c8:b8:e8:39:41:36:b6:
                    c3:09
                Exponent: 65537 (0x10001)
    Signature Algorithm: sha256WithRSAEncryption
         3e:39:8d:20:aa:44:54:00:09:02:c2:f7:5b:06:6d:31:cc:47:
         80:75:79:bc:d7:fc:c0:5f:fa:88:8e:5a:fc:1e:9d:10:b0:c0:
         bb:29:05:57:89:03:86:dd:7f:f1:c2:2e:76:31:d2:bd:a1:b7:
         70:88:13:38:4f:b6:1c:dc:23:8a:75:72:67:e8:33:29:3b:e7:
         72:69:b0:0f:b8:ff:ea:b0:49:04:b1:d3:b1:4a:79:8b:62:c5:
         94:a7:a8:7a:94:66:ca:23:b9:f6:24:31:29:ed:a5:d9:c4:26:
         0c:83:99:10:48:77:f5:67:45:f5:49:e7:97:74:b4:d0:34:d8:
         b0:65:30:45:53:33:1e:f4:49:c4:dd:43:d5:98:b2:1d:e1:5b:
         2c:eb:44:e6:ab:54:eb:38:35:19:fe:3e:9a:2b:ac:60:0d:66:
         46:03:43:57:9f:4a:38:4c:e6:bb:7a:29:2b:1c:0e:02:b1:09:
         6a:2f:56:cd:c9:d3:76:d7:54:6f:d1:32:46:ef:50:f4:56:a9:
         01:fe:66:52:78:9f:18:cd:91:6a:20:9e:15:1f:8b:ed:f6:a6:
         1e:b7:20:4b:22:f2:1d:ee:06:fc:6f:87:76:c2:2e:e1:0c:3b:
         32:e0:bb:8c:8e:52:cd:64:fd:aa:01:f9:c0:9a:ed:aa:74:e9:
         59:b5:e3:ce
-----BEGIN CERTIFICATE-----
MIIClzCCAX8CAQMwDQYJKoZIhvcNAQELBQAwEjEQMA4GA1UEAwwHUm9vdCBDQTAe
Fw0xODA1MjYxMTM2NTJaFw0yODA1MjMxMTM2NTJaMBExDzANBgNVBAMTBmNsaWVu
dDCCASIwDQYJKoZIhvcNAQEBBQADggEPADCCAQoCggEBANWYJ5wt1RlT3XuHB5XP
gmq9n29kSLWsf4Eb3wdh9FH+HdBqhvE8iZm7eHModn4w9ub3ge6cs8BUD3JmG9kx
Og1864PhNQ8E+WgG43PAF9mTY7gJpd4bhqKVVZR+bm3+X5EP/nnNgq6HDX9WX2Vw
6vIXZcCY9DYXWDAQorvC3UCTzPDz/J5iAG/X8X6JsIy9HoVWP0AEER9Mz6g6zijL
nWi1S/SHrcapiBcwnItfur4AZZ0LeyvDAtBE62TOLvLTSD9ivJdSgip1cQjsKs0v
fmtldxnkt8ZHAVf169fXU+lPc5KFiWwkFwUT0oxq1GghZ3rFQqXFOTTIuOg5QTa2
wwkCAwEAATANBgkqhkiG9w0BAQsFAAOCAQEAPjmNIKpEVAAJAsL3WwZtMcxHgHV5
vNf8wF/6iI5a/B6dELDAuykFV4kDht1/8cIudjHSvaG3cIgTOE+2HNwjinVyZ+gz
KTvncmmwD7j/6rBJBLHTsUp5i2LFlKeoepRmyiO59iQxKe2l2cQmDIOZEEh39WdF
9Unnl3S00DTYsGUwRVMzHvRJxN1D1ZiyHeFbLOtE5qtU6zg1Gf4+miusYA1mRgND
V59KOEzmu3opKxwOArEJai9WzcnTdtdUb9EyRu9Q9FapAf5mUnifGM2RaiCeFR+L
7famHrcgSyLyHe4G/G+HdsIu4Qw7MuC7jI5SzWT9qgH5wJrtqnTpWbXjzg==
-----END CERTIFICATE-----
