Certificate:
    Data:
        Version: 1 (0x0)
        Serial Number: 3 (0x3)
        Signature Algorithm: sha1WithRSAEncryption
        Issuer: CN=localhost
        Validity
            Not Before: Oct 21 09:14:42 2016 GMT
            Not After : Oct 21 09:14:42 2017 GMT
        Subject: CN=localhost
        Subject Public Key Info:
            Public Key Algorithm: rsaEncryption
            RSA Public Key: (2048 bit)
                Modulus (2048 bit):
                    00:99:c4:d2:77:39:29:51:34:f5:f3:76:c9:41:5a:
                    c8:b8:6c:08:ee:cc:cd:4e:1a:45:b5:9c:fd:6e:e2:
                    82:34:5d:53:66:15:0e:af:69:65:ca:54:6a:47:55:
                    ae:b8:28:0d:0f:e5:14:37:a0:e8:4c:e4:ef:2c:49:
                    fd:f4:71:ad:cf:10:85:4e:18:96:d4:f7:b6:8c:44:
                    61:22:f0:d2:36:cb:a9:9c:e5:68:e2:42:ec:c9:a0:
                    9b:24:08:da:e5:72:03:ce:71:64:ec:ae:f9:f9:8f:
                    60:96:4b:97:4c:c1:df:c4:88:06:78:40:a0:ef:26:
                    60:46:38:71:ec:43:66:d3:84:d7:73:49:bf:ad:3c:
                    95:c1:80:b5:a5:d6:7c:a9:99:d6:9b:6c:f9:02:73:
                    3c:75:b9:46:ab:03:b0:ef:7d:7f:e7:49:1c:66:9c:
                    b4:68:e3:1a:6a:e2:b6:b9:1a:2a:cb:03:26:e1:fb:
                    75:2f:0f:58:3b:52:0e:05:27:5c:f3:26:40:78:3a:
                    ec:69:ac:5e:9a:37:f7:f8:46:9f:99:96:0b:15:52:
                    ec:0f:6b:aa:bf:a1:2c:8a:bd:38:60:a1:23:59:4d:
                    6b:1a:ba:a0:f7:8a:89:da:16:21:8b:1a:f3:5b:eb:
                    00:06:ec:c8:1e:a8:a6:64:bb:0e:19:b6:a6:f2:19:
                    6b:53
                Exponent: 65537 (0x10001)
    Signature Algorithm: sha1WithRSAEncryption
        82:3e:20:ff:93:6e:40:8e:f4:b1:86:f1:43:9c:80:ca:44:0e:
        ea:a3:b3:c5:cb:9a:2e:ef:de:0f:12:31:b7:4e:cf:9c:e4:d0:
        94:d2:53:5a:e9:64:09:bd:32:4c:93:a4:94:b8:2b:14:c0:23:
        1b:af:52:21:ef:cb:a0:f5:86:42:24:e8:69:70:6f:5d:01:3f:
        50:be:83:ce:5e:60:17:07:f4:38:9e:0e:bf:02:78:ae:07:52:
        06:be:02:bf:59:bb:f1:3e:66:8c:1c:7d:35:3a:80:7b:1f:d5:
        b1:74:e0:d5:cd:70:0f:c5:d1:5b:36:d6:95:21:55:ed:58:4f:
        81:5a:df:83:3b:85:63:25:10:c6:d2:b5:e0:cd:37:93:12:3c:
        8b:03:1a:ad:6e:fa:80:85:94:3c:ce:8f:b2:7a:25:84:cc:94:
        cd:8e:27:8c:5d:0a:2d:59:2e:fa:8d:68:67:6f:66:56:9b:1a:
        50:c4:ca:38:3f:3a:a5:ee:9e:9f:89:43:c7:eb:3d:e9:56:6e:
        bf:47:5e:00:6a:c2:94:aa:0d:e0:ab:fb:17:7d:6c:5f:b2:92:
        c7:5e:4a:21:44:f5:c9:88:eb:24:5c:4e:a5:eb:59:21:d6:ca:
        8b:e3:47:08:8d:c6:34:2b:19:c8:f1:2a:83:28:b1:3c:64:92:
        e2:4c:cd:02
-----BEGIN CERTIFICATE-----
MIICnDCCAYQCAQMwDQYJKoZIhvcNAQEFBQAwFDESMBAGA1UEAxMJbG9jYWxob3N0
MB4XDTE2MTAyMTA5MTQ0MloXDTE3MTAyMTA5MTQ0MlowFDESMBAGA1UEAxMJbG9j
YWxob3N0MIIBIjANBgkqhkiG9w0BAQEFAAOCAQ8AMIIBCgKCAQEAmcTSdzkpUTT1
83bJQVrIuGwI7szNThpFtZz9buKCNF1TZhUOr2llylRqR1WuuCgND+UUN6DoTOTv
LEn99HGtzxCFThiW1Pe2jERhIvDSNsupnOVo4kLsyaCbJAja5XIDznFk7K75+Y9g
lkuXTMHfxIgGeECg7yZgRjhx7ENm04TXc0m/rTyVwYC1pdZ8qZnWm2z5AnM8dblG
qwOw731/50kcZpy0aOMaauK2uRoqywMm4ft1Lw9YO1IOBSdc8yZAeDrsaaxemjf3
+EafmZYLFVLsD2uqv6Esir04YKEjWU1rGrqg94qJ2hYhixrzW+sABuzIHqimZLsO
Gbam8hlrUwIDAQABMA0GCSqGSIb3DQEBBQUAA4IBAQCCPiD/k25AjvSxhvFDnIDK
RA7qo7PFy5ou794PEjG3Ts+c5NCU0lNa6WQJvTJMk6SUuCsUwCMbr1Ih78ug9YZC
JOhpcG9dAT9QvoPOXmAXB/Q4ng6/AniuB1IGvgK/WbvxPmaMHH01OoB7H9WxdODV
zXAPxdFbNtaVIVXtWE+BWt+DO4VjJRDG0rXgzTeTEjyLAxqtbvqAhZQ8zo+yeiWE
zJTNjieMXQotWS76jWhnb2ZWmxpQxMo4Pzql7p6fiUPH6z3pVm6/R14AasKUqg3g
q/sXfWxfspLHXkohRPXJiOskXE6l61kh1sqL40cIjcY0KxnI8SqDKLE8ZJLiTM0C
-----END CERTIFICATE-----
