Certificate:
    Data:
        Version: 1 (0x0)
        Serial Number: 3 (0x3)
        Signature Algorithm: sha1WithRSAEncryption
        Issuer: CN=localhost
        Validity
            Not Before: Jun  4 15:16:09 2016 GMT
            Not After : Jun  4 15:16:09 2017 GMT
        Subject: CN=localhost
        Subject Public Key Info:
            Public Key Algorithm: rsaEncryption
            RSA Public Key: (2048 bit)
                Modulus (2048 bit):
                    00:e3:23:55:e8:27:c2:97:79:39:4e:0a:0f:c4:8b:
                    1b:32:a1:46:d1:d3:59:38:34:3d:fd:aa:00:a0:c7:
                    6a:55:70:e5:8b:0d:ee:4b:c4:16:b8:88:45:f5:de:
                    24:ad:d5:d3:4d:9e:ed:5d:59:22:8f:24:4e:b7:c8:
                    db:ce:05:15:89:15:a7:4d:6b:72:65:e8:f8:50:63:
                    0a:8d:19:bd:e7:bf:18:cd:5b:b4:09:f7:11:a8:ff:
                    98:05:95:36:78:d0:7e:df:e5:41:8e:71:18:5b:b9:
                    b7:71:4c:58:82:10:6a:dd:99:88:cb:fc:02:01:ec:
                    fc:88:5b:42:31:9d:20:cb:34:f6:1d:da:6a:14:c5:
                    dc:70:56:e6:46:1b:16:5c:da:bb:ab:e3:f1:f7:10:
                    c8:89:ea:26:97:07:03:05:30:34:56:7f:76:23:0e:
                    c1:73:d7:0a:da:0a:8e:c9:85:36:1a:56:76:0b:6b:
                    96:3a:45:27:17:13:13:0c:fb:b4:24:4d:d3:ad:c6:
                    da:b9:bf:47:3a:26:ce:4b:e5:1a:43:eb:25:78:0b:
                    6c:b2:aa:52:91:4b:f1:51:f9:d1:cb:75:70:ed:2c:
                    a6:cf:d1:96:36:a3:d6:7e:2e:a7:66:09:12:50:eb:
                    82:4a:28:37:66:5b:4c:29:4d:ae:bb:5e:5c:73:17:
                    be:9f
                Exponent: 65537 (0x10001)
    Signature Algorithm: sha1WithRSAEncryption
        1d:18:f2:5f:c6:fe:17:5b:1e:3e:5a:ca:ab:32:a6:b7:c8:6f:
        50:f0:04:80:7b:52:d2:af:bc:d8:90:3f:af:60:81:c4:0a:9e:
        91:94:05:02:17:63:05:35:02:e5:bf:c5:04:31:85:10:16:77:
        a0:d9:87:c4:e5:b3:ad:a0:40:f9:5d:d0:c3:b4:87:17:f4:c2:
        ba:a8:c1:4a:83:5b:ff:f1:41:39:0e:2c:c4:ec:3a:de:ca:b6:
        88:d2:42:39:3f:2b:14:c7:f4:d0:b8:ea:ea:0d:5f:5a:8d:c1:
        96:52:be:e3:1b:eb:89:f6:4d:ed:e9:d6:f8:11:ce:6b:c4:6f:
        45:2e:62:1e:54:09:0d:7a:a8:93:f6:5a:ed:32:dd:7b:bb:10:
        0d:ec:d6:05:93:c3:1a:5a:b3:30:8c:04:2d:fe:4b:80:15:3d:
        34:25:65:a4:ab:01:8a:86:7e:a8:4a:e8:ef:cd:51:ce:7b:97:
        b0:bc:a9:4e:d2:2a:02:1a:2b:42:9f:10:e5:bd:7e:ad:70:40:
        8a:a8:61:51:48:f2:11:15:fb:74:2a:27:c2:fb:11:61:da:f1:
        5d:61:60:06:33:28:8b:5b:07:27:37:a6:ce:d0:3c:21:ee:dd:
        ab:95:7b:ad:e3:25:d9:d6:51:1b:0f:d4:4d:7b:e0:44:be:cd:
        76:f3:ae:19
-----BEGIN CERTIFICATE-----
MIICnDCCAYQCAQMwDQYJKoZIhvcNAQEFBQAwFDESMBAGA1UEAxMJbG9jYWxob3N0
MB4XDTE2MDYwNDE1MTYwOVoXDTE3MDYwNDE1MTYwOVowFDESMBAGA1UEAxMJbG9j
YWxob3N0MIIBIjANBgkqhkiG9w0BAQEFAAOCAQ8AMIIBCgKCAQEA4yNV6CfCl3k5
TgoPxIsbMqFG0dNZODQ9/aoAoMdqVXDliw3uS8QWuIhF9d4krdXTTZ7tXVkijyRO
t8jbzgUViRWnTWtyZej4UGMKjRm9578YzVu0CfcRqP+YBZU2eNB+3+VBjnEYW7m3
cUxYghBq3ZmIy/wCAez8iFtCMZ0gyzT2HdpqFMXccFbmRhsWXNq7q+Px9xDIieom
lwcDBTA0Vn92Iw7Bc9cK2gqOyYU2GlZ2C2uWOkUnFxMTDPu0JE3Trcbaub9HOibO
S+UaQ+sleAtssqpSkUvxUfnRy3Vw7Symz9GWNqPWfi6nZgkSUOuCSig3ZltMKU2u
u15ccxe+nwIDAQABMA0GCSqGSIb3DQEBBQUAA4IBAQAdGPJfxv4XWx4+WsqrMqa3
yG9Q8ASAe1LSr7zYkD+vYIHECp6RlAUCF2MFNQLlv8UEMYUQFneg2YfE5bOtoED5
XdDDtIcX9MK6qMFKg1v/8UE5DizE7DreyraI0kI5PysUx/TQuOrqDV9ajcGWUr7j
G+uJ9k3t6db4Ec5rxG9FLmIeVAkNeqiT9lrtMt17uxAN7NYFk8MaWrMwjAQt/kuA
FT00JWWkqwGKhn6oSujvzVHOe5ewvKlO0ioCGitCnxDlvX6tcECKqGFRSPIRFft0
KifC+xFh2vFdYWAGMyiLWwcnN6bO0Dwh7t2rlXut4yXZ1lEbD9RNe+BEvs12864Z
-----END CERTIFICATE-----
