Certificate:
    Data:
        Version: 3 (0x2)
        Serial Number: 4 (0x4)
        Signature Algorithm: sha1WithRSAEncryption
        Issuer: CN=localhost
        Validity
            Not Before: Jul 13 20:48:45 2016 GMT
            Not After : Jul 13 20:48:45 2017 GMT
        Subject: CN=localhost
        Subject Public Key Info:
            Public Key Algorithm: rsaEncryption
            RSA Public Key: (2048 bit)
                Modulus (2048 bit):
                    00:9a:c7:2c:01:f8:a4:3d:f8:72:40:39:ed:94:74:
                    8a:e8:d7:2f:59:fb:85:45:97:83:7f:f2:78:5b:be:
                    db:12:fd:7b:36:4c:92:75:1f:a1:0b:eb:ec:7b:9e:
                    2e:13:d7:81:94:09:27:0a:54:46:08:83:03:62:1d:
                    53:29:5e:18:31:95:84:47:9f:14:f1:3a:58:10:64:
                    24:4e:c0:d5:71:30:c1:26:2e:bc:6a:e0:d5:8e:c0:
                    66:dd:43:2c:09:ee:18:06:de:ba:36:ea:b3:3f:43:
                    34:70:2e:14:5b:09:1f:a0:b1:77:6c:52:f7:03:fe:
                    7a:ed:94:3d:b8:cf:f4:5f:07:03:68:79:3c:d8:ee:
                    ce:29:a8:15:6a:7b:11:ed:4f:0a:6c:6e:b4:e2:2a:
                    d6:60:e7:b9:2f:d0:a2:25:18:8a:01:d9:53:9e:12:
                    8f:96:06:0c:d9:ff:a0:7f:58:f8:9b:9e:29:7c:a0:
                    4c:76:4d:c6:c9:87:85:6f:ce:ab:4d:80:6f:b2:02:
                    2b:58:9d:c9:b0:27:96:77:a8:55:44:78:4d:ab:29:
                    2c:62:8c:e2:d6:86:4d:20:5c:6f:2e:af:21:85:8b:
                    78:0b:fa:a8:94:8d:75:05:6f:62:19:c7:45:8b:77:
                    5d:5a:dc:cb:5a:bc:7d:68:9d:0c:93:62:b0:e5:73:
                    31:c7
                Exponent: 65537 (0x10001)
        X509v3 extensions:
            X509v3 Subject Alternative Name: 
                DNS:localhost
    Signature Algorithm: sha1WithRSAEncryption
        c7:8a:41:16:bf:35:2c:3d:4a:a5:b0:2e:f5:68:b8:37:92:17:
        16:51:1b:0f:76:fe:7d:51:6c:e4:54:2f:a3:f6:b4:80:b0:24:
        d2:f0:7b:68:95:f4:42:09:a5:4f:e1:94:e7:85:e9:22:de:a3:
        af:9a:6d:f3:a6:3b:fb:2e:5e:51:b3:73:23:0c:c7:22:2e:b6:
        14:e0:23:55:be:7d:0c:e4:d7:98:2f:62:0a:36:0a:e6:94:33:
        cc:f0:9f:e3:0b:b1:cd:ca:12:5b:a9:cf:38:63:f4:ec:c5:75:
        1a:e5:db:dd:89:b8:f5:2d:24:58:63:7c:61:42:37:45:6e:77:
        ea:c6:61:64:0b:c3:75:dc:16:bd:c8:e4:7d:74:09:04:3e:75:
        b5:b2:b5:b9:32:71:c3:a4:12:e2:04:c2:f4:e3:ef:7b:1d:54:
        dd:77:4a:73:77:72:09:ca:60:dc:73:a2:0d:96:6e:b1:bf:e7:
        30:3f:21:3e:41:a5:4b:d6:2d:7d:a5:d1:b7:8a:6e:50:40:a0:
        00:a5:83:86:c9:4e:41:95:d3:3e:c6:d6:6c:9b:2e:02:dc:71:
        f1:ed:f9:27:9e:41:24:90:c4:5e:9f:fd:c9:6d:ab:c2:18:4c:
        ab:e8:56:70:80:e3:3b:d5:d8:aa:a5:49:d1:a8:b7:b5:7e:1c:
        51:75:59:04
-----BEGIN CERTIFICATE-----
MIICuzCCAaOgAwIBAgIBBDANBgkqhkiG9w0BAQUFADAUMRIwEAYDVQQDEwlsb2Nh
bGhvc3QwHhcNMTYwNzEzMjA0ODQ1WhcNMTcwNzEzMjA0ODQ1WjAUMRIwEAYDVQQD
Ewlsb2NhbGhvc3QwggEiMA0GCSqGSIb3DQEBAQUAA4IBDwAwggEKAoIBAQCaxywB
+KQ9+HJAOe2UdIro1y9Z+4VFl4N/8nhbvtsS/Xs2TJJ1H6EL6+x7ni4T14GUCScK
VEYIgwNiHVMpXhgxlYRHnxTxOlgQZCROwNVxMMEmLrxq4NWOwGbdQywJ7hgG3ro2
6rM/QzRwLhRbCR+gsXdsUvcD/nrtlD24z/RfBwNoeTzY7s4pqBVqexHtTwpsbrTi
KtZg57kv0KIlGIoB2VOeEo+WBgzZ/6B/WPibnil8oEx2TcbJh4VvzqtNgG+yAitY
ncmwJ5Z3qFVEeE2rKSxijOLWhk0gXG8uryGFi3gL+qiUjXUFb2IZx0WLd11a3Mta
vH1onQyTYrDlczHHAgMBAAGjGDAWMBQGA1UdEQQNMAuCCWxvY2FsaG9zdDANBgkq
hkiG9w0BAQUFAAOCAQEAx4pBFr81LD1KpbAu9Wi4N5IXFlEbD3b+fVFs5FQvo/a0
gLAk0vB7aJX0QgmlT+GU54XpIt6jr5pt86Y7+y5eUbNzIwzHIi62FOAjVb59DOTX
mC9iCjYK5pQzzPCf4wuxzcoSW6nPOGP07MV1GuXb3Ym49S0kWGN8YUI3RW536sZh
ZAvDddwWvcjkfXQJBD51tbK1uTJxw6QS4gTC9OPvex1U3XdKc3dyCcpg3HOiDZZu
sb/nMD8hPkGlS9YtfaXRt4puUECgAKWDhslOQZXTPsbWbJsuAtxx8e35J55BJJDE
Xp/9yW2rwhhMq+hWcIDjO9XYqqVJ0ai3tX4cUXVZBA==
-----END CERTIFICATE-----
