Certificate:
    Data:
        Version: 3 (0x2)
        Serial Number: 1 (0x1)
    Signature Algorithm: sha256WithRSAEncryption
        Issuer: CN=Other CA
        Validity
            Not Before: May 26 11:36:52 2018 GMT
            Not After : May 23 11:36:52 2028 GMT
        Subject: CN=localhost
        Subject Public Key Info:
            Public Key Algorithm: rsaEncryption
                Public-Key: (2048 bit)
                Modulus:
                    00:a7:14:34:bc:ee:03:63:09:64:7e:d2:8f:2e:77:
                    1a:54:b1:9c:84:30:be:98:00:5b:1c:25:6c:a0:c9:
                    1f:7d:01:19:dc:7c:e6:33:66:26:02:d9:50:3c:9d:
                    ca:a4:23:e5:14:4d:00:47:7c:8d:49:f8:46:4b:00:
                    17:e9:93:2e:ad:2a:57:23:42:b4:eb:e5:a8:5d:63:
                    bf:cc:05:f5:62:fa:56:3a:29:30:88:18:af:e5:ad:
                    6a:6a:4e:79:e7:30:9c:a1:0b:f9:33:64:ef:ab:c9:
                    2b:0a:ae:88:bb:a3:0c:13:c1:38:c0:02:b3:62:e9:
                    d8:03:80:f2:b0:a7:05:8f:e9:59:a6:62:8b:d2:e8:
                    b9:0e:e6:e6:f8:ac:58:b0:0d:33:69:f3:ef:7b:71:
                    52:30:6b:78:f4:53:30:58:90:83:f3:7d:79:6f:dd:
                    a2:6b:ab:93:ab:99:93:3c:ea:a5:7c:d3:86:1c:33:
                    9e:bd:83:aa:fb:b0:38:3c:bf:cf:7a:e9:38:9c:84:
                    09:9f:7d:a7:62:2c:01:72:5d:8c:ee:be:63:44:50:
                    0e:45:6a:e2:19:e7:02:98:c1:29:c4:1b:43:d9:ea:
                    7d:46:46:d5:fa:68:60:f9:ce:bf:37:64:e2:72:c8:
                    ca:a9:4c:e5:38:45:87:04:c5:c8:cc:94:09:42:0f:
                    8e:7b
                Exponent: 65537 (0x10001)
        X509v3 extensions:
            X509v3 Subject Alternative Name: 
                DNS:localhost
    Signature Algorithm: sha256WithRSAEncryption
         15:b3:f8:86:ba:02:76:79:38:da:a6:70:53:74:7c:25:8a:c9:
         28:f0:d3:40:3b:9e:1b:af:cb:ef:64:2d:6d:5e:4e:8a:57:99:
         89:c2:d9:d8:9f:bb:5b:56:3c:59:80:0e:56:b2:1f:45:71:e8:
         5a:a8:81:ec:6f:ea:ef:66:2e:b4:ee:e9:d7:4a:c9:ae:b9:2e:
         ee:32:64:57:3b:b5:01:da:b5:a9:71:75:1b:82:9f:17:8e:62:
         1f:1c:80:e6:60:82:26:09:9b:21:b5:6a:24:8a:20:9e:01:6b:
         a5:f4:c1:f4:ed:a0:12:ef:2f:cd:8b:26:9a:6c:f9:2e:e2:84:
         06:cb:ae:ec:c5:b1:fb:2c:f1:73:10:26:77:6f:e2:4b:29:21:
         0e:04:61:b6:47:9e:b8:a1:f9:09:4f:f8:e8:5a:3f:13:41:33:
         c4:7c:2c:6e:c8:02:57:8d:dd:07:7a:6f:c1:ec:00:5c:f2:89:
         bb:2b:8a:65:96:1f:11:e7:4b:58:fd:df:4a:08:a3:a9:72:a7:
         71:dd:91:61:d2:68:2c:a6:6f:16:bb:ee:bb:9e:0a:91:f7:09:
         52:ea:b8:08:97:d5:4f:73:62:1e:6d:5f:38:9d:00:34:19:ad:
         74:79:71:7c:91:99:59:b7:46:bf:0b:22:8c:31:98:7b:0f:43:
         88:eb:b0:9c
-----BEGIN CERTIFICATE-----
MIICujCCAaKgAwIBAgIBATANBgkqhkiG9w0BAQsFADATMREwDwYDVQQDDAhPdGhl
ciBDQTAeFw0xODA1MjYxMTM2NTJaFw0yODA1MjMxMTM2NTJaMBQxEjAQBgNVBAMT
CWxvY2FsaG9zdDCCASIwDQYJKoZIhvcNAQEBBQADggEPADCCAQoCggEBAKcUNLzu
A2MJZH7Sjy53GlSxnIQwvpgAWxwlbKDJH30BGdx85jNmJgLZUDydyqQj5RRNAEd8
jUn4RksAF+mTLq0qVyNCtOvlqF1jv8wF9WL6VjopMIgYr+WtampOeecwnKEL+TNk
76vJKwquiLujDBPBOMACs2Lp2AOA8rCnBY/pWaZii9LouQ7m5visWLANM2nz73tx
UjBrePRTMFiQg/N9eW/domurk6uZkzzqpXzThhwznr2DqvuwODy/z3rpOJyECZ99
p2IsAXJdjO6+Y0RQDkVq4hnnApjBKcQbQ9nqfUZG1fpoYPnOvzdk4nLIyqlM5ThF
hwTFyMyUCUIPjnsCAwEAAaMYMBYwFAYDVR0RBA0wC4IJbG9jYWxob3N0MA0GCSqG
SIb3DQEBCwUAA4IBAQAVs/iGugJ2eTjapnBTdHwlisko8NNAO54br8vvZC1tXk6K
V5mJwtnYn7tbVjxZgA5Wsh9FcehaqIHsb+rvZi607unXSsmuuS7uMmRXO7UB2rWp
cXUbgp8XjmIfHIDmYIImCZshtWokiiCeAWul9MH07aAS7y/NiyaabPku4oQGy67s
xbH7LPFzECZ3b+JLKSEOBGG2R564ofkJT/joWj8TQTPEfCxuyAJXjd0Hem/B7ABc
8om7K4pllh8R50tY/d9KCKOpcqdx3ZFh0mgspm8Wu+67ngqR9wlS6rgIl9VPc2Ie
bV84nQA0Ga10eXF8kZlZt0a/CyKMMZh7D0OI67Cc
-----END CERTIFICATE-----
