Certificate:
    Data:
        Version: 1 (0x0)
        Serial Number: 1 (0x1)
        Signature Algorithm: sha1WithRSAEncryption
        Issuer: C=FR, ST=Some-State, O=Internet Widgits Pty Ltd
        Validity
            Not Before: Jul  4 13:39:48 2014 GMT
            Not After : Jul  4 13:39:48 2015 GMT
        Subject: C=Unknown, ST=Unknown, O=Unknown, OU=Unknown, CN=localhost
        Subject Public Key Info:
            Public Key Algorithm: rsaEncryption
            RSA Public Key: (2048 bit)
                Modulus (2048 bit):
                    00:d5:eb:33:e4:e5:6a:8b:c1:2d:1a:85:d3:2d:e0:
                    5f:77:86:f0:e0:3e:8d:1b:2c:e9:22:28:00:30:6a:
                    d4:ce:b6:79:0e:05:87:2d:dc:e6:ed:27:00:e4:51:
                    b2:b3:02:4f:96:a7:58:af:1a:90:cd:84:89:78:48:
                    ca:18:b3:9e:2e:43:69:5b:2b:b5:5f:f7:bc:d3:2a:
                    10:d4:12:22:09:99:27:0b:b1:70:59:fa:54:8a:0b:
                    b6:c4:a1:e3:5f:82:8e:64:d5:6b:3a:5d:7c:22:0c:
                    d2:c7:09:bf:0d:c4:a3:2f:ed:1d:d7:3a:50:19:22:
                    e8:02:93:8b:97:ca:de:89:9c:b5:87:23:8b:7d:18:
                    80:06:7b:70:64:34:45:bd:43:f7:98:4d:90:93:85:
                    67:09:e0:8f:5b:f1:51:17:05:89:01:7a:f5:f6:f5:
                    3d:91:29:67:52:5c:ab:73:fa:94:3d:78:d3:6f:c8:
                    40:7a:a5:c1:3a:ef:15:85:e1:7f:d8:e1:d0:3c:4b:
                    79:a5:53:b2:4d:e1:6c:5a:12:3a:d7:21:97:f0:c6:
                    f4:6e:8d:a0:71:02:fb:db:a8:3f:e1:fe:ee:e2:d7:
                    2e:b7:c0:2b:09:d6:a0:59:fe:d8:9c:7c:e5:ce:02:
                    3f:92:1c:e8:ca:26:f8:f8:db:f5:95:b5:96:3d:de:
                    3c:eb
                Exponent: 65537 (0x10001)
    Signature Algorithm: sha1WithRSAEncryption
        97:e1:01:19:14:fa:b7:e4:b3:40:f8:0b:9f:1a:27:6f:51:25:
        05:6e:6e:6b:27:ba:93:28:cd:5d:ac:2f:ff:f8:71:e5:3c:6b:
        ad:23:19:45:0e:e8:da:32:46:20:bf:c1:ae:c9:05:74:c5:32:
        4a:32:b6:d4:72:7a:10:34:62:4d:cc:45:d1:28:f3:7d:01:32:
        9b:ee:74:6d:11:d6:c8:61:2b:83:e0:e1:cb:89:12:47:29:2a:
        6d:ca:20:d2:06:49:fd:3c:71:fe:ec:02:7f:7e:d7:0e:a0:b6:
        44:84:9f:5d:e7:5c:76:0a:2a:db:12:3f:04:eb:ef:19:96:f7:
        3f:3d:e8:49:ec:bb:c2:45:72:b2:72:c4:f1:62:56:33:a7:eb:
        99:70:58:6a:01:85:b6:87:29:ac:97:c3:3d:82:ac:de:26:f3:
        71:c8:d0:46:8c:3c:25:7e:7c:cf:61:6e:ce:ba:e3:e9:b1:dc:
        f6:16:56:b8:32:46:ef:19:3b:8b:d6:ec:43:d6:ec:0e:11:90:
        9b:45:73:c4:f6:33:a0:2c:88:a5:1e:e7:24:44:77:d5:7f:fb:
        6a:e0:4c:9a:14:54:8e:e9:ee:ff:f6:58:51:62:19:00:c1:46:
        0d:a8:fd:c3:a6:4b:71:0d:1b:ec:bd:f6:23:6c:41:e4:76:91:
        72:82:c8:81
-----BEGIN CERTIFICATE-----
MIIDFTCCAf0CAQEwDQYJKoZIhvcNAQEFBQAwRTELMAkGA1UEBhMCRlIxEzARBgNV
BAgTClNvbWUtU3RhdGUxITAfBgNVBAoTGEludGVybmV0IFdpZGdpdHMgUHR5IEx0
ZDAeFw0xNDA3MDQxMzM5NDhaFw0xNTA3MDQxMzM5NDhaMFwxEDAOBgNVBAYTB1Vu
a25vd24xEDAOBgNVBAgTB1Vua25vd24xEDAOBgNVBAoTB1Vua25vd24xEDAOBgNV
BAsTB1Vua25vd24xEjAQBgNVBAMTCWxvY2FsaG9zdDCCASIwDQYJKoZIhvcNAQEB
BQADggEPADCCAQoCggEBANXrM+TlaovBLRqF0y3gX3eG8OA+jRss6SIoADBq1M62
eQ4Fhy3c5u0nAORRsrMCT5anWK8akM2EiXhIyhizni5DaVsrtV/3vNMqENQSIgmZ
JwuxcFn6VIoLtsSh41+CjmTVazpdfCIM0scJvw3Eoy/tHdc6UBki6AKTi5fK3omc
tYcji30YgAZ7cGQ0Rb1D95hNkJOFZwngj1vxURcFiQF69fb1PZEpZ1Jcq3P6lD14
02/IQHqlwTrvFYXhf9jh0DxLeaVTsk3hbFoSOtchl/DG9G6NoHEC+9uoP+H+7uLX
LrfAKwnWoFn+2Jx85c4CP5Ic6Mom+Pjb9ZW1lj3ePOsCAwEAATANBgkqhkiG9w0B
AQUFAAOCAQEAl+EBGRT6t+SzQPgLnxonb1ElBW5uaye6kyjNXawv//hx5TxrrSMZ
RQ7o2jJGIL/BrskFdMUySjK21HJ6EDRiTcxF0SjzfQEym+50bRHWyGErg+Dhy4kS
Rykqbcog0gZJ/Txx/uwCf37XDqC2RISfXedcdgoq2xI/BOvvGZb3Pz3oSey7wkVy
snLE8WJWM6frmXBYagGFtocprJfDPYKs3ibzccjQRow8JX58z2Fuzrrj6bHc9hZW
uDJG7xk7i9bsQ9bsDhGQm0VzxPYzoCyIpR7nJER31X/7auBMmhRUjunu//ZYUWIZ
AMFGDaj9w6ZLcQ0b7L32I2xB5HaRcoLIgQ==
-----END CERTIFICATE-----
