Certificate:
    Data:
        Version: 1 (0x0)
        Serial Number: 1 (0x1)
    Signature Algorithm: sha1WithRSAEncryption
        Issuer: C=XX, L=Default City, O=Default Company Ltd, CN=localhost
        Validity
            Not Before: Jul  7 13:37:04 2015 GMT
            Not After : Jul  6 13:37:04 2016 GMT
        Subject: CN=localhost
        Subject Public Key Info:
            Public Key Algorithm: rsaEncryption
                Public-Key: (2048 bit)
                Modulus:
                    00:9a:c7:2c:01:f8:a4:3d:f8:72:40:39:ed:94:74:
                    8a:e8:d7:2f:59:fb:85:45:97:83:7f:f2:78:5b:be:
                    db:12:fd:7b:36:4c:92:75:1f:a1:0b:eb:ec:7b:9e:
                    2e:13:d7:81:94:09:27:0a:54:46:08:83:03:62:1d:
                    53:29:5e:18:31:95:84:47:9f:14:f1:3a:58:10:64:
                    24:4e:c0:d5:71:30:c1:26:2e:bc:6a:e0:d5:8e:c0:
                    66:dd:43:2c:09:ee:18:06:de:ba:36:ea:b3:3f:43:
                    34:70:2e:14:5b:09:1f:a0:b1:77:6c:52:f7:03:fe:
                    7a:ed:94:3d:b8:cf:f4:5f:07:03:68:79:3c:d8:ee:
                    ce:29:a8:15:6a:7b:11:ed:4f:0a:6c:6e:b4:e2:2a:
                    d6:60:e7:b9:2f:d0:a2:25:18:8a:01:d9:53:9e:12:
                    8f:96:06:0c:d9:ff:a0:7f:58:f8:9b:9e:29:7c:a0:
                    4c:76:4d:c6:c9:87:85:6f:ce:ab:4d:80:6f:b2:02:
                    2b:58:9d:c9:b0:27:96:77:a8:55:44:78:4d:ab:29:
                    2c:62:8c:e2:d6:86:4d:20:5c:6f:2e:af:21:85:8b:
                    78:0b:fa:a8:94:8d:75:05:6f:62:19:c7:45:8b:77:
                    5d:5a:dc:cb:5a:bc:7d:68:9d:0c:93:62:b0:e5:73:
                    31:c7
                Exponent: 65537 (0x10001)
    Signature Algorithm: sha1WithRSAEncryption
         b1:fa:27:35:db:17:ab:a9:68:ec:19:ed:de:6e:ab:19:e2:9b:
         d4:76:05:85:64:96:b0:1b:a0:a8:3f:b8:8b:a2:6e:18:41:06:
         10:da:4e:c7:d2:e7:2c:e0:f7:20:51:ec:ad:ec:9a:90:8f:75:
         a5:14:f6:e9:e3:94:0f:a8:16:b2:09:5b:a5:93:41:69:9f:e5:
         5d:09:43:f6:23:7f:b1:d4:00:f4:5a:d8:9d:4f:8c:0a:76:d5:
         85:9c:30:6a:87:97:26:be:a5:36:aa:86:34:00:06:57:55:b1:
         4d:74:65:37:6a:ef:3f:00:ce:0a:da:93:e8:25:45:fd:e8:78:
         a4:ad:c2:c1:2f:03:c4:8c:b6:07:ee:9f:2b:56:41:1c:2c:15:
         f4:1f:01:28:1d:be:33:e7:e2:c6:24:a2:02:41:e8:45:36:30:
         d7:32:30:fa:a7:9e:6f:eb:86:d8:93:cf:f8:aa:48:f8:78:58:
         64:fb:f2:cb:4a:5b:7a:20:7e:c7:02:3e:fe:53:9c:23:e4:80:
         95:7c:a6:e8:8a:bf:a7:b0:c6:a8:9e:0f:4a:74:92:50:c7:da:
         a4:72:40:21:d9:15:26:61:f3:b3:5f:46:bc:61:f1:da:e8:c1:
         ef:01:56:98:4a:12:8c:d0:ba:99:b4:c9:3b:48:c3:6f:9f:ee:
         ee:71:84:30
-----BEGIN CERTIFICATE-----
MIIC3jCCAcYCAQEwDQYJKoZIhvcNAQEFBQAwVjELMAkGA1UEBhMCWFgxFTATBgNV
BAcMDERlZmF1bHQgQ2l0eTEcMBoGA1UECgwTRGVmYXVsdCBDb21wYW55IEx0ZDES
MBAGA1UEAwwJbG9jYWxob3N0MB4XDTE1MDcwNzEzMzcwNFoXDTE2MDcwNjEzMzcw
NFowFDESMBAGA1UEAxMJbG9jYWxob3N0MIIBIjANBgkqhkiG9w0BAQEFAAOCAQ8A
MIIBCgKCAQEAmscsAfikPfhyQDntlHSK6NcvWfuFRZeDf/J4W77bEv17NkySdR+h
C+vse54uE9eBlAknClRGCIMDYh1TKV4YMZWER58U8TpYEGQkTsDVcTDBJi68auDV
jsBm3UMsCe4YBt66NuqzP0M0cC4UWwkfoLF3bFL3A/567ZQ9uM/0XwcDaHk82O7O
KagVansR7U8KbG604irWYOe5L9CiJRiKAdlTnhKPlgYM2f+gf1j4m54pfKBMdk3G
yYeFb86rTYBvsgIrWJ3JsCeWd6hVRHhNqyksYozi1oZNIFxvLq8hhYt4C/qolI11
BW9iGcdFi3ddWtzLWrx9aJ0Mk2Kw5XMxxwIDAQABMA0GCSqGSIb3DQEBBQUAA4IB
AQCx+ic12xerqWjsGe3ebqsZ4pvUdgWFZJawG6CoP7iLom4YQQYQ2k7H0ucs4Pcg
Ueyt7JqQj3WlFPbp45QPqBayCVulk0Fpn+VdCUP2I3+x1AD0WtidT4wKdtWFnDBq
h5cmvqU2qoY0AAZXVbFNdGU3au8/AM4K2pPoJUX96HikrcLBLwPEjLYH7p8rVkEc
LBX0HwEoHb4z5+LGJKICQehFNjDXMjD6p55v64bYk8/4qkj4eFhk+/LLSlt6IH7H
Aj7+U5wj5ICVfKboir+nsMaong9KdJJQx9qkckAh2RUmYfOzX0a8YfHa6MHvAVaY
ShKM0LqZtMk7SMNvn+7ucYQw
-----END CERTIFICATE-----
