Certificate:
    Data:
        Version: 1 (0x0)
        Serial Number: 2 (0x2)
    Signature Algorithm: sha1WithRSAEncryption
        Issuer: C=XX, L=Default City, O=Default Company Ltd, CN=localhost
        Validity
            Not Before: Jul  7 13:40:09 2015 GMT
            Not After : Jul  6 13:40:09 2016 GMT
        Subject: CN=localhost
        Subject Public Key Info:
            Public Key Algorithm: rsaEncryption
                Public-Key: (2048 bit)
                Modulus:
                    00:99:67:71:9f:77:56:7d:88:8b:3f:74:e4:35:3c:
                    d7:7f:fe:58:24:7a:67:ff:c0:27:2f:e1:35:00:5e:
                    cf:d1:3e:1d:83:f2:e2:09:e4:06:88:2c:de:35:de:
                    84:2f:ba:2a:7b:85:fc:ca:52:16:fa:12:59:94:27:
                    24:3f:a1:0d:af:fe:b2:9e:ae:af:a9:49:0e:a1:a1:
                    65:1f:d0:89:e2:c5:51:04:ae:a1:92:53:b4:40:d4:
                    89:83:49:da:7b:45:87:03:b8:61:ac:52:e7:2d:af:
                    c2:d3:c5:d2:96:9b:f5:7b:e5:cf:e9:46:ea:24:d3:
                    10:62:6f:af:5f:72:4b:71:7e:e8:68:c3:e0:17:d0:
                    3a:a5:6d:ec:eb:6c:d8:5a:b7:9b:89:83:d5:71:8b:
                    24:4f:a9:98:87:11:44:10:37:f4:cb:2a:f8:f8:cc:
                    a4:48:c8:94:66:0c:0d:b0:a1:ae:db:f0:50:09:60:
                    87:5e:65:46:18:aa:6a:e5:43:98:f0:08:1c:5f:03:
                    a8:c1:1b:1d:8f:9d:8b:0a:bb:fe:63:46:ad:82:17:
                    c6:ce:8f:b9:c3:15:ce:a2:b1:ce:6c:aa:16:2d:aa:
                    80:ca:f8:9c:9d:1f:b7:8f:a4:04:b8:7f:54:e8:67:
                    9c:66:29:38:08:1f:9f:1a:8b:54:28:3f:5f:61:6e:
                    21:33
                Exponent: 65537 (0x10001)
    Signature Algorithm: sha1WithRSAEncryption
         31:51:1d:39:b8:14:91:3b:99:79:ff:a3:24:bf:15:c5:2b:7e:
         b0:ed:b0:95:31:7d:35:0a:7d:af:bf:f3:06:aa:e9:ca:28:9b:
         cd:96:15:72:a3:c9:34:12:aa:78:c8:16:ab:f1:be:97:3b:43:
         02:b4:88:15:cc:57:fd:ef:e0:11:31:14:0a:6e:d8:09:88:7f:
         b3:c3:3b:22:92:35:90:78:d3:dc:e0:94:b7:ba:1b:7a:e1:b3:
         32:38:af:11:c3:e3:e1:cd:8d:e3:30:24:f0:1b:b7:64:ce:15:
         fb:82:c0:6a:1c:ad:73:0d:3a:59:27:58:ff:c0:20:9e:ef:54:
         4c:eb:c8:94:be:e5:1d:de:45:0d:34:6a:e2:c0:bc:ca:f7:48:
         30:e1:35:75:f2:0d:53:23:a6:9a:a1:44:a7:c6:73:4f:8d:7d:
         e2:e0:84:3d:4b:c8:0b:56:ef:a6:65:7a:0e:51:04:a9:f6:3b:
         5f:a0:10:39:76:58:35:7e:39:3e:78:50:89:34:b9:fd:de:70:
         08:bd:49:c1:30:eb:b5:31:05:97:f4:54:7f:fb:c7:70:a3:fa:
         e8:d8:47:4b:02:72:05:26:d4:bc:c3:0e:ee:2d:a2:d0:18:f0:
         f7:50:91:ca:65:dd:0b:7c:42:28:9d:54:bb:32:fd:07:26:b3:
         f4:2b:06:f6
-----BEGIN CERTIFICATE-----
MIIC3jCCAcYCAQIwDQYJKoZIhvcNAQEFBQAwVjELMAkGA1UEBhMCWFgxFTATBgNV
BAcMDERlZmF1bHQgQ2l0eTEcMBoGA1UECgwTRGVmYXVsdCBDb21wYW55IEx0ZDES
MBAGA1UEAwwJbG9jYWxob3N0MB4XDTE1MDcwNzEzNDAwOVoXDTE2MDcwNjEzNDAw
OVowFDESMBAGA1UEAxMJbG9jYWxob3N0MIIBIjANBgkqhkiG9w0BAQEFAAOCAQ8A
MIIBCgKCAQEAmWdxn3dWfYiLP3TkNTzXf/5YJHpn/8AnL+E1AF7P0T4dg/LiCeQG
iCzeNd6EL7oqe4X8ylIW+hJZlCckP6ENr/6ynq6vqUkOoaFlH9CJ4sVRBK6hklO0
QNSJg0nae0WHA7hhrFLnLa/C08XSlpv1e+XP6UbqJNMQYm+vX3JLcX7oaMPgF9A6
pW3s62zYWrebiYPVcYskT6mYhxFEEDf0yyr4+MykSMiUZgwNsKGu2/BQCWCHXmVG
GKpq5UOY8AgcXwOowRsdj52LCrv+Y0atghfGzo+5wxXOorHObKoWLaqAyvicnR+3
j6QEuH9U6GecZik4CB+fGotUKD9fYW4hMwIDAQABMA0GCSqGSIb3DQEBBQUAA4IB
AQAxUR05uBSRO5l5/6MkvxXFK36w7bCVMX01Cn2vv/MGqunKKJvNlhVyo8k0Eqp4
yBar8b6XO0MCtIgVzFf97+ARMRQKbtgJiH+zwzsikjWQeNPc4JS3uht64bMyOK8R
w+PhzY3jMCTwG7dkzhX7gsBqHK1zDTpZJ1j/wCCe71RM68iUvuUd3kUNNGriwLzK
90gw4TV18g1TI6aaoUSnxnNPjX3i4IQ9S8gLVu+mZXoOUQSp9jtfoBA5dlg1fjk+
eFCJNLn93nAIvUnBMOu1MQWX9FR/+8dwo/ro2EdLAnIFJtS8ww7uLaLQGPD3UJHK
Zd0LfEIonVS7Mv0HJrP0Kwb2
-----END CERTIFICATE-----
