Certificate:
    Data:
        Version: 1 (0x0)
        Serial Number: 2 (0x2)
        Signature Algorithm: sha1WithRSAEncryption
        Issuer: C=FR, ST=Some-State, O=Internet Widgits Pty Ltd
        Validity
            Not Before: Jul  4 22:43:25 2014 GMT
            Not After : Jul  4 22:43:25 2015 GMT
        Subject: C=Unknown, ST=Unknown, O=Unknown, OU=Unknown, CN=localhost
        Subject Public Key Info:
            Public Key Algorithm: rsaEncryption
            RSA Public Key: (2048 bit)
                Modulus (2048 bit):
                    00:e0:5a:3e:18:28:a4:3b:7a:d3:0a:be:91:ab:d2:
                    9b:47:eb:39:fe:70:be:10:51:d9:cf:cd:d4:e1:8a:
                    39:06:50:37:8c:5f:8a:14:0f:65:a9:78:0e:f6:b9:
                    76:88:a9:7b:35:c5:1b:7d:fb:38:32:94:03:28:6a:
                    45:c0:c2:f8:22:27:84:90:60:dd:04:f0:7b:b1:95:
                    2c:95:37:25:68:a8:b5:14:39:ab:e6:60:ba:3a:f3:
                    c3:77:9f:d7:8f:0d:f8:85:21:49:d9:3f:dd:85:bd:
                    df:10:ae:58:ba:0b:ab:67:61:2b:7a:4c:f8:3b:21:
                    59:16:b8:d8:5f:2a:ad:af:fa:c9:74:fb:ba:62:ac:
                    fa:3c:e4:24:d4:7f:c7:39:63:d1:52:dc:34:73:fc:
                    9c:35:84:dd:91:50:94:b4:ae:58:7e:9e:d5:20:0f:
                    99:0b:48:66:49:8b:bd:7f:65:82:25:08:d7:f5:4b:
                    5a:64:23:33:c5:8a:7e:d1:89:20:a5:69:22:82:75:
                    55:d6:05:8f:11:be:ad:6d:20:93:a7:de:17:4e:c2:
                    3d:28:96:ff:7b:8d:51:15:df:7d:79:f9:50:48:db:
                    72:6a:76:13:1e:d5:e8:5d:35:03:bc:0a:22:3f:dc:
                    f2:39:7a:74:44:ca:5b:33:07:dd:4b:03:12:4c:44:
                    84:0f
                Exponent: 65537 (0x10001)
    Signature Algorithm: sha1WithRSAEncryption
        8e:6e:ed:e1:bf:86:ed:a2:02:0a:6e:09:b5:12:d5:f4:66:c9:
        a0:a7:e3:d5:cc:c2:ad:ff:73:4f:d9:da:85:de:a0:95:12:79:
        56:b1:75:4f:46:35:ea:aa:a4:bb:c5:70:0c:23:ec:e5:f5:33:
        c8:03:4c:c5:ca:d6:20:34:3d:bf:7a:a2:98:6d:f0:60:12:ff:
        6b:8e:cb:64:0b:82:17:17:2e:ab:54:14:00:75:66:a6:a6:ca:
        26:c3:29:d9:9b:00:16:13:06:a3:2c:f1:bd:bb:e1:40:3c:00:
        e1:ab:b8:d1:45:4b:dc:e7:47:94:c2:3a:49:a5:dd:12:b1:8c:
        f3:9f:dd:03:03:18:35:cb:de:eb:60:21:1e:e9:9d:7d:c8:be:
        66:3c:63:80:ab:a3:99:e8:1d:9c:16:97:f8:79:c5:45:8c:23:
        a7:3a:37:53:5b:a9:f2:a8:d0:d9:ca:30:07:59:14:67:9e:5c:
        b4:b2:29:1b:ed:05:58:b4:41:5f:65:b0:e4:13:35:88:f2:b0:
        ff:c1:d9:82:ef:ad:68:83:60:a8:b1:5e:63:f5:29:a2:f7:cc:
        d0:48:8c:71:17:1c:9f:b8:f3:af:cd:b1:32:b0:a0:c7:b5:f2:
        24:d9:a2:c9:e7:a6:97:d4:21:4b:25:26:6a:aa:d2:79:25:de:
        13:7c:91:e4
-----BEGIN CERTIFICATE-----
MIIDFTCCAf0CAQIwDQYJKoZIhvcNAQEFBQAwRTELMAkGA1UEBhMCRlIxEzARBgNV
BAgTClNvbWUtU3RhdGUxITAfBgNVBAoTGEludGVybmV0IFdpZGdpdHMgUHR5IEx0
ZDAeFw0xNDA3MDQyMjQzMjVaFw0xNTA3MDQyMjQzMjVaMFwxEDAOBgNVBAYTB1Vu
a25vd24xEDAOBgNVBAgTB1Vua25vd24xEDAOBgNVBAoTB1Vua25vd24xEDAOBgNV
BAsTB1Vua25vd24xEjAQBgNVBAMTCWxvY2FsaG9zdDCCASIwDQYJKoZIhvcNAQEB
BQADggEPADCCAQoCggEBAOBaPhgopDt60wq+kavSm0frOf5wvhBR2c/N1OGKOQZQ
N4xfihQPZal4Dva5doipezXFG337ODKUAyhqRcDC+CInhJBg3QTwe7GVLJU3JWio
tRQ5q+Zgujrzw3ef148N+IUhSdk/3YW93xCuWLoLq2dhK3pM+DshWRa42F8qra/6
yXT7umKs+jzkJNR/xzlj0VLcNHP8nDWE3ZFQlLSuWH6e1SAPmQtIZkmLvX9lgiUI
1/VLWmQjM8WKftGJIKVpIoJ1VdYFjxG+rW0gk6feF07CPSiW/3uNURXffXn5UEjb
cmp2Ex7V6F01A7wKIj/c8jl6dETKWzMH3UsDEkxEhA8CAwEAATANBgkqhkiG9w0B
AQUFAAOCAQEAjm7t4b+G7aICCm4JtRLV9GbJoKfj1czCrf9zT9nahd6glRJ5VrF1
T0Y16qqku8VwDCPs5fUzyANMxcrWIDQ9v3qimG3wYBL/a47LZAuCFxcuq1QUAHVm
pqbKJsMp2ZsAFhMGoyzxvbvhQDwA4au40UVL3OdHlMI6SaXdErGM85/dAwMYNcve
62AhHumdfci+ZjxjgKujmegdnBaX+HnFRYwjpzo3U1up8qjQ2cowB1kUZ55ctLIp
G+0FWLRBX2Ww5BM1iPKw/8HZgu+taINgqLFeY/UpovfM0EiMcRccn7jzr82xMrCg
x7XyJNmiyeeml9QhSyUmaqrSeSXeE3yR5A==
-----END CERTIFICATE-----
