Certificate:
    Data:
        Version: 1 (0x0)
        Serial Number: 1 (0x1)
    Signature Algorithm: sha1WithRSAEncryption
        Issuer: CN=localhost
        Validity
            Not Before: Oct 27 08:52:48 2017 GMT
            Not After : Oct 27 08:52:48 2018 GMT
        Subject: CN=localhost
        Subject Public Key Info:
            Public Key Algorithm: rsaEncryption
                Public-Key: (2048 bit)
                Modulus:
                    00:8d:92:f3:50:11:7a:29:a1:6d:5b:bf:26:c9:56:
                    13:63:6f:2c:e5:75:49:b6:06:1a:18:76:af:d0:cb:
                    38:26:e0:10:be:3e:8e:fe:0e:09:2b:b4:9d:1a:f5:
                    90:aa:1a:69:6c:fe:06:a8:ba:bd:48:a1:93:5c:3a:
                    b8:a2:cd:77:99:df:2b:13:c0:c1:63:7d:7d:00:79:
                    44:70:34:89:8a:02:a5:82:e0:1c:ca:d3:2f:a8:43:
                    e3:4c:ae:1c:8c:ae:a1:82:41:73:4d:24:e7:d5:42:
                    d4:f8:e7:e0:d8:5f:d4:7b:21:d6:82:47:f1:e4:67:
                    5d:32:2b:70:57:2e:7f:c4:07:52:00:be:99:5b:6b:
                    f6:65:e2:e7:02:d1:8b:06:e8:68:1b:68:db:bf:f8:
                    ca:31:ed:f3:9d:0c:11:79:84:b1:40:69:8c:88:41:
                    38:6d:9e:65:7e:d8:87:84:e3:74:c8:15:6b:f0:ff:
                    cf:fd:d7:47:e2:17:51:e5:70:64:5e:0d:bd:d3:d0:
                    15:c2:94:dd:a0:ca:c5:d8:da:13:3f:f6:6b:67:81:
                    82:6d:9f:a6:e9:6d:e5:ff:c4:30:7e:f7:ac:9f:87:
                    30:bf:93:32:e9:70:08:42:ba:f4:b5:fc:c3:bd:fa:
                    6d:3c:f7:3f:9e:f6:ff:89:90:79:95:65:05:18:2e:
                    10:09
                Exponent: 65537 (0x10001)
    Signature Algorithm: sha1WithRSAEncryption
         1b:0f:b7:9b:c6:45:31:ae:04:c8:92:e8:f1:78:d3:1a:48:66:
         36:f2:f4:4a:81:d0:8b:dd:ba:55:e0:5d:5d:84:b9:50:80:fe:
         b6:d1:47:0e:9e:ef:c3:51:70:19:cf:a9:23:13:0f:0b:96:9c:
         94:f4:df:3a:2e:18:b4:c6:3b:0d:d7:c0:71:19:b6:be:7f:d0:
         64:56:3b:8f:fd:6a:a0:96:bd:d1:09:9e:92:97:6f:9c:86:54:
         84:65:99:42:0a:e9:58:7c:68:d5:93:1b:9f:f2:bc:7b:ce:7c:
         11:c2:6a:d2:11:01:15:bc:86:a1:0b:ea:27:7a:87:67:d7:bd:
         20:b9:4f:5f:05:4d:5f:bb:8d:fd:1c:3d:41:99:a0:83:15:82:
         4f:3a:99:5c:62:12:04:c8:34:58:1f:8f:eb:53:0f:de:87:1d:
         17:6d:a2:35:9d:93:00:56:95:ef:1f:5f:e6:e1:5f:91:58:06:
         56:ad:f4:72:98:e3:5e:3e:62:cd:37:c2:1e:bf:59:8d:8a:94:
         fc:2d:bc:ac:62:5d:fb:46:a5:7a:41:5e:88:70:12:62:32:f2:
         eb:0a:30:87:1f:33:60:30:f9:1c:bf:cb:83:0a:05:00:78:5d:
         ec:8e:62:55:32:40:7b:b7:27:4e:9f:ac:4a:aa:30:d5:35:1b:
         d7:12:52:43
-----BEGIN CERTIFICATE-----
MIICnDCCAYQCAQEwDQYJKoZIhvcNAQEFBQAwFDESMBAGA1UEAwwJbG9jYWxob3N0
MB4XDTE3MTAyNzA4NTI0OFoXDTE4MTAyNzA4NTI0OFowFDESMBAGA1UEAxMJbG9j
YWxob3N0MIIBIjANBgkqhkiG9w0BAQEFAAOCAQ8AMIIBCgKCAQEAjZLzUBF6KaFt
W78myVYTY28s5XVJtgYaGHav0Ms4JuAQvj6O/g4JK7SdGvWQqhppbP4GqLq9SKGT
XDq4os13md8rE8DBY319AHlEcDSJigKlguAcytMvqEPjTK4cjK6hgkFzTSTn1ULU
+Ofg2F/UeyHWgkfx5GddMitwVy5/xAdSAL6ZW2v2ZeLnAtGLBuhoG2jbv/jKMe3z
nQwReYSxQGmMiEE4bZ5lftiHhON0yBVr8P/P/ddH4hdR5XBkXg2909AVwpTdoMrF
2NoTP/ZrZ4GCbZ+m6W3l/8Qwfvesn4cwv5My6XAIQrr0tfzDvfptPPc/nvb/iZB5
lWUFGC4QCQIDAQABMA0GCSqGSIb3DQEBBQUAA4IBAQAbD7ebxkUxrgTIkujxeNMa
SGY28vRKgdCL3bpV4F1dhLlQgP620UcOnu/DUXAZz6kjEw8LlpyU9N86Lhi0xjsN
18BxGba+f9BkVjuP/Wqglr3RCZ6Sl2+chlSEZZlCCulYfGjVkxuf8rx7znwRwmrS
EQEVvIahC+oneodn170guU9fBU1fu439HD1BmaCDFYJPOplcYhIEyDRYH4/rUw/e
hx0XbaI1nZMAVpXvH1/m4V+RWAZWrfRymONePmLNN8Iev1mNipT8LbysYl37RqV6
QV6IcBJiMvLrCjCHHzNgMPkcv8uDCgUAeF3sjmJVMkB7tydOn6xKqjDVNRvXElJD
-----END CERTIFICATE-----
