Certificate:
    Data:
        Version: 1 (0x0)
        Serial Number: 1 (0x1)
        Signature Algorithm: sha1WithRSAEncryption
        Issuer: CN=localhost
        Validity
            Not Before: Jun  4 15:20:57 2016 GMT
            Not After : Jun  4 15:20:57 2017 GMT
        Subject: CN=localhost
        Subject Public Key Info:
            Public Key Algorithm: rsaEncryption
            RSA Public Key: (2048 bit)
                Modulus (2048 bit):
                    00:9a:c7:2c:01:f8:a4:3d:f8:72:40:39:ed:94:74:
                    8a:e8:d7:2f:59:fb:85:45:97:83:7f:f2:78:5b:be:
                    db:12:fd:7b:36:4c:92:75:1f:a1:0b:eb:ec:7b:9e:
                    2e:13:d7:81:94:09:27:0a:54:46:08:83:03:62:1d:
                    53:29:5e:18:31:95:84:47:9f:14:f1:3a:58:10:64:
                    24:4e:c0:d5:71:30:c1:26:2e:bc:6a:e0:d5:8e:c0:
                    66:dd:43:2c:09:ee:18:06:de:ba:36:ea:b3:3f:43:
                    34:70:2e:14:5b:09:1f:a0:b1:77:6c:52:f7:03:fe:
                    7a:ed:94:3d:b8:cf:f4:5f:07:03:68:79:3c:d8:ee:
                    ce:29:a8:15:6a:7b:11:ed:4f:0a:6c:6e:b4:e2:2a:
                    d6:60:e7:b9:2f:d0:a2:25:18:8a:01:d9:53:9e:12:
                    8f:96:06:0c:d9:ff:a0:7f:58:f8:9b:9e:29:7c:a0:
                    4c:76:4d:c6:c9:87:85:6f:ce:ab:4d:80:6f:b2:02:
                    2b:58:9d:c9:b0:27:96:77:a8:55:44:78:4d:ab:29:
                    2c:62:8c:e2:d6:86:4d:20:5c:6f:2e:af:21:85:8b:
                    78:0b:fa:a8:94:8d:75:05:6f:62:19:c7:45:8b:77:
                    5d:5a:dc:cb:5a:bc:7d:68:9d:0c:93:62:b0:e5:73:
                    31:c7
                Exponent: 65537 (0x10001)
    Signature Algorithm: sha1WithRSAEncryption
        a3:ad:02:b0:c2:f2:7c:5c:9b:9d:dc:60:bd:d9:b5:b6:d8:20:
        69:97:b8:01:63:90:14:c9:62:ce:c0:64:a9:56:7d:43:1f:f8:
        ef:99:8b:06:9b:7a:8e:4b:8b:4e:18:7b:13:c2:55:01:2b:b1:
        72:54:8b:9c:1b:a4:fb:ac:f4:eb:1a:96:90:a3:a1:8a:5e:27:
        e5:01:76:d7:e9:41:e3:9a:9d:1d:a1:90:f2:47:60:b3:4e:58:
        88:bd:eb:5f:20:7c:a3:85:fa:1a:a6:1d:87:24:6b:d4:a9:ee:
        67:4f:04:49:aa:41:ad:2d:e2:92:c6:b4:e0:fd:b7:fa:35:74:
        39:e5:3e:cf:4b:79:4c:77:0b:6b:19:63:d0:3a:cc:42:1a:7c:
        42:74:70:83:76:02:74:d6:75:47:25:62:ff:a3:80:d1:e1:8b:
        e6:3d:80:e2:ba:08:a4:e9:f7:db:b4:cf:a3:0e:a3:6b:21:f6:
        30:01:c0:5b:bf:95:da:b0:ac:d3:6f:fb:e6:20:fa:3a:6c:6f:
        c9:25:a1:46:ee:ac:df:4b:45:5f:30:f4:a2:6e:c1:70:16:02:
        33:0c:a2:d9:27:0c:b3:c2:bf:05:8f:8e:3c:9a:02:4d:ee:98:
        89:05:fe:31:a0:a9:d0:b1:37:57:c4:87:44:d1:76:d8:e4:6c:
        c6:b0:b3:02
-----BEGIN CERTIFICATE-----
MIICnDCCAYQCAQEwDQYJKoZIhvcNAQEFBQAwFDESMBAGA1UEAxMJbG9jYWxob3N0
MB4XDTE2MDYwNDE1MjA1N1oXDTE3MDYwNDE1MjA1N1owFDESMBAGA1UEAxMJbG9j
YWxob3N0MIIBIjANBgkqhkiG9w0BAQEFAAOCAQ8AMIIBCgKCAQEAmscsAfikPfhy
QDntlHSK6NcvWfuFRZeDf/J4W77bEv17NkySdR+hC+vse54uE9eBlAknClRGCIMD
Yh1TKV4YMZWER58U8TpYEGQkTsDVcTDBJi68auDVjsBm3UMsCe4YBt66NuqzP0M0
cC4UWwkfoLF3bFL3A/567ZQ9uM/0XwcDaHk82O7OKagVansR7U8KbG604irWYOe5
L9CiJRiKAdlTnhKPlgYM2f+gf1j4m54pfKBMdk3GyYeFb86rTYBvsgIrWJ3JsCeW
d6hVRHhNqyksYozi1oZNIFxvLq8hhYt4C/qolI11BW9iGcdFi3ddWtzLWrx9aJ0M
k2Kw5XMxxwIDAQABMA0GCSqGSIb3DQEBBQUAA4IBAQCjrQKwwvJ8XJud3GC92bW2
2CBpl7gBY5AUyWLOwGSpVn1DH/jvmYsGm3qOS4tOGHsTwlUBK7FyVIucG6T7rPTr
GpaQo6GKXiflAXbX6UHjmp0doZDyR2CzTliIvetfIHyjhfoaph2HJGvUqe5nTwRJ
qkGtLeKSxrTg/bf6NXQ55T7PS3lMdwtrGWPQOsxCGnxCdHCDdgJ01nVHJWL/o4DR
4YvmPYDiugik6ffbtM+jDqNrIfYwAcBbv5XasKzTb/vmIPo6bG/JJaFG7qzfS0Vf
MPSibsFwFgIzDKLZJwyzwr8Fj448mgJN7piJBf4xoKnQsTdXxIdE0XbY5GzGsLMC
-----END CERTIFICATE-----
