Certificate:
    Data:
        Version: 1 (0x0)
        Serial Number: 1 (0x1)
        Signature Algorithm: sha256WithRSAEncryption
        Issuer: CN=Intermediate CA
        Validity
            Not Before: May 27 17:06:07 2022 GMT
            Not After : May 19 17:06:07 2052 GMT
        Subject: CN=localhost
        Subject Public Key Info:
            Public Key Algorithm: rsaEncryption
                RSA Public-Key: (2048 bit)
                Modulus:
                    00:dc:f4:80:a5:a5:59:e2:dd:b5:0f:d9:b9:ac:f7:
                    6f:3d:22:c1:dc:05:78:3b:ff:f6:bb:8e:70:15:13:
                    b1:04:40:8c:0c:98:10:86:f5:08:72:54:92:b5:94:
                    d4:1d:c9:64:33:53:dc:b2:61:a3:c8:dd:94:07:f8:
                    95:6e:f0:a6:16:c2:e5:5f:5b:aa:20:2d:a8:42:ff:
                    ba:84:e2:71:1e:e5:1b:5a:26:bb:28:db:7d:39:b5:
                    71:ea:a7:ac:11:52:89:5f:b0:54:d5:25:0c:2f:c9:
                    38:81:1e:0f:71:7d:d7:ed:b6:33:16:d4:85:40:3f:
                    64:62:50:05:d1:3f:23:9e:15:4b:78:13:f8:ec:61:
                    e5:e9:43:0f:e8:83:d0:18:b8:b5:3f:04:d2:e7:7f:
                    d4:fd:47:e0:9e:6f:cd:9d:fc:c7:8c:51:44:1a:1f:
                    3d:2d:9d:4f:67:67:35:d9:3e:a7:da:e8:dc:53:d8:
                    c7:4c:8c:dd:6c:1a:e8:da:38:dd:34:9d:94:bc:b2:
                    be:bc:c1:f5:84:9c:f4:7f:30:c7:c0:e6:30:34:17:
                    d2:b8:97:a1:d3:cc:ec:1c:29:ec:8b:3c:b6:9c:f1:
                    f5:6e:3a:b4:51:20:84:85:46:19:c5:54:26:b7:cc:
                    f7:18:b3:9c:6d:55:2f:79:30:01:74:5a:d0:15:d7:
                    72:e7
                Exponent: 65537 (0x10001)
    Signature Algorithm: sha256WithRSAEncryption
         a3:0f:ab:40:c3:7d:c5:ae:51:17:ef:79:2a:67:57:e3:30:b3:
         5c:b9:1d:32:16:99:e7:fc:de:64:03:ce:b5:b5:98:2a:84:b6:
         22:ee:ee:c7:92:22:ad:cb:d6:c3:d5:76:f0:c6:0d:1c:27:28:
         72:5f:8a:73:86:4e:9b:0c:a4:3b:bc:40:34:9a:f4:64:21:7b:
         4a:a6:6f:fe:64:25:ba:3d:2c:70:27:cc:ef:73:67:8a:b9:d1:
         2e:ba:42:46:4e:be:44:f7:4c:fa:66:d1:ed:d1:c2:c1:5c:78:
         30:3d:6e:08:da:3a:cd:85:2c:7e:43:14:66:f1:a2:3d:63:42:
         7f:88:21:ae:db:01:b5:8f:a0:04:bd:9d:0e:e5:de:d3:41:5e:
         a4:36:ec:6f:e6:a8:1d:1d:78:9b:86:eb:90:aa:c4:fd:18:dd:
         43:49:d1:b6:b7:86:86:c0:8e:f1:7e:af:16:94:29:7a:36:e2:
         c5:4c:ea:58:83:c1:5f:93:24:48:3e:fb:37:55:7d:2a:8f:78:
         7c:4c:ee:71:7f:24:19:fd:1a:97:54:20:00:25:9e:d2:68:77:
         5c:c8:33:02:ed:3b:4f:7d:48:3e:94:72:08:ac:a6:92:f0:0c:
         d3:54:0b:52:63:33:2e:8b:06:05:3a:90:cc:b8:b3:c7:73:c2:
         74:1e:9e:e4
-----BEGIN CERTIFICATE-----
MIICpDCCAYwCAQEwDQYJKoZIhvcNAQELBQAwGjEYMBYGA1UEAwwPSW50ZXJtZWRp
YXRlIENBMCAXDTIyMDUyNzE3MDYwN1oYDzIwNTIwNTE5MTcwNjA3WjAUMRIwEAYD
VQQDEwlsb2NhbGhvc3QwggEiMA0GCSqGSIb3DQEBAQUAA4IBDwAwggEKAoIBAQDc
9IClpVni3bUP2bms9289IsHcBXg7//a7jnAVE7EEQIwMmBCG9QhyVJK1lNQdyWQz
U9yyYaPI3ZQH+JVu8KYWwuVfW6ogLahC/7qE4nEe5RtaJrso2305tXHqp6wRUolf
sFTVJQwvyTiBHg9xfdfttjMW1IVAP2RiUAXRPyOeFUt4E/jsYeXpQw/og9AYuLU/
BNLnf9T9R+Ceb82d/MeMUUQaHz0tnU9nZzXZPqfa6NxT2MdMjN1sGujaON00nZS8
sr68wfWEnPR/MMfA5jA0F9K4l6HTzOwcKeyLPLac8fVuOrRRIISFRhnFVCa3zPcY
s5xtVS95MAF0WtAV13LnAgMBAAEwDQYJKoZIhvcNAQELBQADggEBAKMPq0DDfcWu
URfveSpnV+Mws1y5HTIWmef83mQDzrW1mCqEtiLu7seSIq3L1sPVdvDGDRwnKHJf
inOGTpsMpDu8QDSa9GQhe0qmb/5kJbo9LHAnzO9zZ4q50S66QkZOvkT3TPpm0e3R
wsFceDA9bgjaOs2FLH5DFGbxoj1jQn+IIa7bAbWPoAS9nQ7l3tNBXqQ27G/mqB0d
eJuG65CqxP0Y3UNJ0ba3hobAjvF+rxaUKXo24sVM6liDwV+TJEg++zdVfSqPeHxM
7nF/JBn9GpdUIAAlntJod1zIMwLtO099SD6UcgisppLwDNNUC1JjMy6LBgU6kMy4
s8dzwnQenuQ=
-----END CERTIFICATE-----
