Certificate:
    Data:
        Version: 1 (0x0)
        Serial Number: 1 (0x1)
    Signature Algorithm: sha256WithRSAEncryption
        Issuer: CN=Intermediate CA
        Validity
            Not Before: May 26 11:36:51 2018 GMT
            Not After : May 23 11:36:51 2028 GMT
        Subject: CN=localhost
        Subject Public Key Info:
            Public Key Algorithm: rsaEncryption
                Public-Key: (2048 bit)
                Modulus:
                    00:a7:14:34:bc:ee:03:63:09:64:7e:d2:8f:2e:77:
                    1a:54:b1:9c:84:30:be:98:00:5b:1c:25:6c:a0:c9:
                    1f:7d:01:19:dc:7c:e6:33:66:26:02:d9:50:3c:9d:
                    ca:a4:23:e5:14:4d:00:47:7c:8d:49:f8:46:4b:00:
                    17:e9:93:2e:ad:2a:57:23:42:b4:eb:e5:a8:5d:63:
                    bf:cc:05:f5:62:fa:56:3a:29:30:88:18:af:e5:ad:
                    6a:6a:4e:79:e7:30:9c:a1:0b:f9:33:64:ef:ab:c9:
                    2b:0a:ae:88:bb:a3:0c:13:c1:38:c0:02:b3:62:e9:
                    d8:03:80:f2:b0:a7:05:8f:e9:59:a6:62:8b:d2:e8:
                    b9:0e:e6:e6:f8:ac:58:b0:0d:33:69:f3:ef:7b:71:
                    52:30:6b:78:f4:53:30:58:90:83:f3:7d:79:6f:dd:
                    a2:6b:ab:93:ab:99:93:3c:ea:a5:7c:d3:86:1c:33:
                    9e:bd:83:aa:fb:b0:38:3c:bf:cf:7a:e9:38:9c:84:
                    09:9f:7d:a7:62:2c:01:72:5d:8c:ee:be:63:44:50:
                    0e:45:6a:e2:19:e7:02:98:c1:29:c4:1b:43:d9:ea:
                    7d:46:46:d5:fa:68:60:f9:ce:bf:37:64:e2:72:c8:
                    ca:a9:4c:e5:38:45:87:04:c5:c8:cc:94:09:42:0f:
                    8e:7b
                Exponent: 65537 (0x10001)
    Signature Algorithm: sha256WithRSAEncryption
         76:ae:5e:28:23:e5:cc:b7:bc:ca:27:18:51:2b:97:14:4d:4d:
         b3:79:00:4d:01:51:4b:0d:68:82:f8:cc:87:17:9a:bc:de:d7:
         05:e2:2a:4a:20:48:17:70:27:9c:16:45:b5:15:77:83:ef:d8:
         86:a9:bd:9f:80:ae:6f:e1:26:bf:ae:ea:50:6d:05:82:7a:30:
         8c:e7:3d:88:9c:fd:db:ee:78:71:7f:25:5d:ff:26:68:4d:55:
         48:fd:44:64:c5:62:52:52:2b:1f:09:3e:60:45:5e:f4:84:9a:
         c8:6f:5c:76:57:64:15:b7:fc:71:35:2c:20:da:0e:8f:0a:e0:
         b6:21:44:21:c4:95:f3:42:ff:88:3a:de:db:7b:b0:95:9d:e7:
         27:59:ad:67:d7:54:61:14:29:fc:ef:0c:f0:5d:7d:44:a3:99:
         fe:7a:8a:45:a8:9c:01:b1:41:6c:08:55:b5:28:e9:d1:ef:d1:
         e5:18:05:20:be:15:f0:f9:31:b6:75:f1:ad:2c:76:18:3e:06:
         f3:a7:4b:93:13:54:cb:e7:1c:3e:94:7d:70:0a:5c:29:73:b1:
         3e:b3:e3:44:c8:ea:94:01:bb:e8:e9:99:f5:26:6f:88:f5:00:
         09:36:48:4e:84:72:1c:6b:76:86:78:ac:83:34:d1:57:c9:9b:
         22:10:63:d1
-----BEGIN CERTIFICATE-----
MIICojCCAYoCAQEwDQYJKoZIhvcNAQELBQAwGjEYMBYGA1UEAwwPSW50ZXJtZWRp
YXRlIENBMB4XDTE4MDUyNjExMzY1MVoXDTI4MDUyMzExMzY1MVowFDESMBAGA1UE
AxMJbG9jYWxob3N0MIIBIjANBgkqhkiG9w0BAQEFAAOCAQ8AMIIBCgKCAQEApxQ0
vO4DYwlkftKPLncaVLGchDC+mABbHCVsoMkffQEZ3HzmM2YmAtlQPJ3KpCPlFE0A
R3yNSfhGSwAX6ZMurSpXI0K06+WoXWO/zAX1YvpWOikwiBiv5a1qak555zCcoQv5
M2Tvq8krCq6Iu6MME8E4wAKzYunYA4DysKcFj+lZpmKL0ui5Dubm+KxYsA0zafPv
e3FSMGt49FMwWJCD8315b92ia6uTq5mTPOqlfNOGHDOevYOq+7A4PL/Peuk4nIQJ
n32nYiwBcl2M7r5jRFAORWriGecCmMEpxBtD2ep9RkbV+mhg+c6/N2TicsjKqUzl
OEWHBMXIzJQJQg+OewIDAQABMA0GCSqGSIb3DQEBCwUAA4IBAQB2rl4oI+XMt7zK
JxhRK5cUTU2zeQBNAVFLDWiC+MyHF5q83tcF4ipKIEgXcCecFkW1FXeD79iGqb2f
gK5v4Sa/rupQbQWCejCM5z2InP3b7nhxfyVd/yZoTVVI/URkxWJSUisfCT5gRV70
hJrIb1x2V2QVt/xxNSwg2g6PCuC2IUQhxJXzQv+IOt7be7CVnecnWa1n11RhFCn8
7wzwXX1Eo5n+eopFqJwBsUFsCFW1KOnR79HlGAUgvhXw+TG2dfGtLHYYPgbzp0uT
E1TL5xw+lH1wClwpc7E+s+NEyOqUAbvo6Zn1Jm+I9QAJNkhOhHIca3aGeKyDNNFX
yZsiEGPR
-----END CERTIFICATE-----
