Certificate:
    Data:
        Version: 1 (0x0)
        Serial Number: 1 (0x1)
        Signature Algorithm: sha1WithRSAEncryption
        Issuer: CN=localhost
        Validity
            Not Before: Oct 21 09:13:10 2016 GMT
            Not After : Oct 21 09:13:10 2017 GMT
        Subject: CN=localhost
        Subject Public Key Info:
            Public Key Algorithm: rsaEncryption
            RSA Public Key: (2048 bit)
                Modulus (2048 bit):
                    00:94:ee:20:6c:77:85:6f:f7:e6:6d:41:7f:b4:e2:
                    5f:34:f2:6e:98:95:04:aa:0c:c0:cf:1f:0c:05:7b:
                    fd:01:cc:b0:f4:84:5a:f2:06:22:0a:b7:3e:3e:87:
                    da:0e:bf:73:6a:ce:de:d5:3f:c0:cf:3b:b9:e3:0c:
                    8e:a9:d3:33:83:de:d5:18:35:c5:b4:dc:ad:4e:af:
                    6c:b5:08:9d:e9:c7:03:4a:be:83:37:c8:01:02:0c:
                    07:78:e5:a9:1e:bf:bd:3e:13:25:b7:40:4f:3d:e4:
                    f2:f9:2d:5f:e9:5f:32:00:52:1f:5d:56:e3:10:e1:
                    cb:77:f7:33:4a:a0:35:13:c9:f7:cd:0b:fd:8f:e9:
                    ef:b7:27:93:90:65:66:93:a3:ac:03:d6:3c:98:c3:
                    71:ef:4e:06:a1:b0:94:a3:c4:ef:08:76:f5:1f:47:
                    ff:01:56:c3:d5:dc:e5:f7:9f:50:30:01:98:90:bc:
                    32:1c:69:31:07:58:0b:39:d6:19:7a:66:f0:57:23:
                    b3:dc:f8:bc:d6:84:e5:6f:18:5d:7a:02:a5:b6:48:
                    91:18:04:be:3a:1e:b2:b0:34:79:be:7d:56:ea:b2:
                    b5:04:22:25:bb:6d:97:51:8d:45:92:30:32:28:71:
                    f1:e1:3d:6b:54:37:08:8e:ed:1a:1f:b9:72:01:9b:
                    ba:5f
                Exponent: 65537 (0x10001)
    Signature Algorithm: sha1WithRSAEncryption
        24:3b:99:d9:f1:15:28:62:3e:c2:71:54:6d:af:86:1b:e2:f2:
        70:1c:3d:3c:75:1a:43:08:42:0f:d9:6f:c1:e2:c0:9b:6d:f2:
        e9:e4:3d:d8:33:12:1d:b6:3d:5d:ba:78:e6:61:28:f1:d8:c2:
        6b:6d:57:da:f1:44:d6:ba:e8:7f:7d:a2:f2:dd:5e:3a:71:85:
        64:fd:20:b6:91:46:d8:bc:56:2c:27:89:38:74:a7:dc:53:46:
        fe:e2:7a:48:c5:ec:8b:f9:64:21:f4:c3:70:03:cf:f0:90:e4:
        d6:07:65:5c:62:1e:3d:19:e2:f3:65:6f:96:73:23:b8:90:6f:
        f5:f5:90:0f:51:66:c7:c8:1d:90:9c:85:41:50:07:93:c8:d1:
        f3:ee:16:76:d2:c7:f2:8f:ec:e8:98:db:c0:c9:7d:39:71:38:
        68:ef:7d:25:22:e2:95:63:8d:35:54:10:01:01:f4:fa:cf:aa:
        1c:0d:21:2b:79:ac:5c:83:fa:0f:a6:20:49:c1:00:3e:00:fb:
        9f:5a:36:ca:ab:88:62:60:4e:be:dc:58:39:aa:29:8f:21:5f:
        ce:38:92:c3:55:95:dd:d2:a0:c4:a3:70:6d:e5:21:ba:1a:95:
        0b:78:e4:2e:81:9c:da:a6:2a:c9:ee:6f:e9:3c:03:26:b8:c5:
        fe:4c:cc:d3
-----BEGIN CERTIFICATE-----
MIICnDCCAYQCAQEwDQYJKoZIhvcNAQEFBQAwFDESMBAGA1UEAxMJbG9jYWxob3N0
MB4XDTE2MTAyMTA5MTMxMFoXDTE3MTAyMTA5MTMxMFowFDESMBAGA1UEAxMJbG9j
YWxob3N0MIIBIjANBgkqhkiG9w0BAQEFAAOCAQ8AMIIBCgKCAQEAlO4gbHeFb/fm
bUF/tOJfNPJumJUEqgzAzx8MBXv9Acyw9IRa8gYiCrc+PofaDr9zas7e1T/Azzu5
4wyOqdMzg97VGDXFtNytTq9stQid6ccDSr6DN8gBAgwHeOWpHr+9PhMlt0BPPeTy
+S1f6V8yAFIfXVbjEOHLd/czSqA1E8n3zQv9j+nvtyeTkGVmk6OsA9Y8mMNx704G
obCUo8TvCHb1H0f/AVbD1dzl959QMAGYkLwyHGkxB1gLOdYZembwVyOz3Pi81oTl
bxhdegKltkiRGAS+Oh6ysDR5vn1W6rK1BCIlu22XUY1FkjAyKHHx4T1rVDcIju0a
H7lyAZu6XwIDAQABMA0GCSqGSIb3DQEBBQUAA4IBAQAkO5nZ8RUoYj7CcVRtr4Yb
4vJwHD08dRpDCEIP2W/B4sCbbfLp5D3YMxIdtj1dunjmYSjx2MJrbVfa8UTWuuh/
faLy3V46cYVk/SC2kUbYvFYsJ4k4dKfcU0b+4npIxeyL+WQh9MNwA8/wkOTWB2Vc
Yh49GeLzZW+WcyO4kG/19ZAPUWbHyB2QnIVBUAeTyNHz7hZ20sfyj+zomNvAyX05
cTho730lIuKVY401VBABAfT6z6ocDSEreaxcg/oPpiBJwQA+APufWjbKq4hiYE6+
3Fg5qimPIV/OOJLDVZXd0qDEo3Bt5SG6GpULeOQugZzapirJ7m/pPAMmuMX+TMzT
-----END CERTIFICATE-----
