Certificate:
    Data:
        Version: 1 (0x0)
        Serial Number: 2 (0x2)
        Signature Algorithm: sha256WithRSAEncryption
        Issuer: CN=Other CA
        Validity
            Not Before: May 27 17:06:11 2022 GMT
            Not After : May 19 17:06:11 2052 GMT
        Subject: CN=client
        Subject Public Key Info:
            Public Key Algorithm: rsaEncryption
                RSA Public-Key: (2048 bit)
                Modulus:
                    00:c8:55:7f:c3:b3:d4:64:6d:f9:68:ee:fa:4d:16:
                    92:b5:55:7f:d9:e8:2d:a6:51:8c:b9:ed:fd:6a:f0:
                    4f:67:73:ae:bd:40:64:de:74:c1:c2:7c:bc:96:6d:
                    3f:8d:49:a6:cc:1c:8b:f5:30:15:e7:3e:a3:9e:36:
                    c9:4d:92:2c:c4:f1:02:a6:ee:3d:5b:98:e7:95:af:
                    00:f4:d1:ce:8e:52:74:84:1a:3a:a1:dd:4b:06:e4:
                    81:a8:08:90:53:92:0f:bf:79:c6:a9:1e:7c:56:75:
                    9b:f4:7b:68:dc:1c:4d:4c:45:19:61:42:0e:16:2d:
                    f7:c1:91:76:cb:71:1a:23:61:55:83:b8:26:cb:65:
                    2d:8f:fd:78:36:71:f4:c5:5f:4f:9c:52:84:73:67:
                    ad:ee:dd:40:c5:b4:c7:81:17:45:1f:eb:d3:82:89:
                    80:5a:fa:aa:57:0b:cf:0f:91:12:3f:56:cf:75:e5:
                    87:c3:10:26:a3:de:d0:99:ca:0d:df:28:df:3e:b7:
                    ae:43:9a:05:e1:15:09:7e:05:80:07:2f:8a:b0:e4:
                    28:28:3e:d6:0f:22:2e:f5:c1:0f:9b:4d:9f:71:75:
                    26:14:3e:37:1f:01:f0:78:b4:d5:ff:09:51:93:06:
                    39:73:88:2f:aa:a7:f7:e0:ad:e1:97:af:2a:8f:33:
                    05:5d
                Exponent: 65537 (0x10001)
    Signature Algorithm: sha256WithRSAEncryption
         9c:f6:84:47:0a:f5:a2:a2:02:29:bf:ab:19:c6:cd:e5:5b:9a:
         16:c1:05:ab:f4:e8:e1:3d:49:76:7e:ca:dc:1b:b2:73:9e:a9:
         69:1e:4a:ec:c0:4d:6f:dd:01:5e:4a:11:89:8c:51:ea:eb:60:
         53:97:76:ed:3d:5c:82:68:23:73:bb:b7:e3:5f:f1:97:db:d7:
         c2:1a:e0:2c:fe:12:00:3d:db:45:15:0b:aa:7a:5d:43:f8:a6:
         8a:a5:e8:6e:8f:1e:2a:8b:b4:b6:1a:b1:d7:31:4a:05:68:98:
         6b:18:84:c7:c0:55:1d:66:cf:6b:bf:89:fc:87:b2:a0:e1:e6:
         9b:d0:82:33:34:ad:76:07:3a:ff:a1:8b:23:f2:6b:ee:a0:d4:
         c9:c5:72:f2:42:56:f2:ef:8f:ac:71:3d:35:3c:1f:f2:ce:c1:
         68:ae:5a:4e:02:67:4e:f6:df:9a:93:e0:71:39:9d:47:c8:13:
         ed:86:9b:35:80:ad:8f:5a:cc:6f:d3:dc:68:8e:e3:82:e2:1c:
         c9:f5:4d:b0:90:4f:76:b6:f2:64:61:36:41:1f:e6:4b:b3:65:
         17:4b:00:8c:d9:08:24:41:c2:3a:7d:18:5b:44:97:f9:f1:18:
         32:5f:1d:39:bb:ea:36:ad:9f:57:31:78:cd:a8:4f:a7:25:0e:
         3c:94:8c:10
-----BEGIN CERTIFICATE-----
MIICmjCCAYICAQIwDQYJKoZIhvcNAQELBQAwEzERMA8GA1UEAwwIT3RoZXIgQ0Ew
IBcNMjIwNTI3MTcwNjExWhgPMjA1MjA1MTkxNzA2MTFaMBExDzANBgNVBAMTBmNs
aWVudDCCASIwDQYJKoZIhvcNAQEBBQADggEPADCCAQoCggEBAMhVf8Oz1GRt+Wju
+k0WkrVVf9noLaZRjLnt/WrwT2dzrr1AZN50wcJ8vJZtP41Jpswci/UwFec+o542
yU2SLMTxAqbuPVuY55WvAPTRzo5SdIQaOqHdSwbkgagIkFOSD795xqkefFZ1m/R7
aNwcTUxFGWFCDhYt98GRdstxGiNhVYO4JstlLY/9eDZx9MVfT5xShHNnre7dQMW0
x4EXRR/r04KJgFr6qlcLzw+REj9Wz3Xlh8MQJqPe0JnKDd8o3z63rkOaBeEVCX4F
gAcvirDkKCg+1g8iLvXBD5tNn3F1JhQ+Nx8B8Hi01f8JUZMGOXOIL6qn9+Ct4Zev
Ko8zBV0CAwEAATANBgkqhkiG9w0BAQsFAAOCAQEAnPaERwr1oqICKb+rGcbN5Vua
FsEFq/To4T1Jdn7K3Buyc56paR5K7MBNb90BXkoRiYxR6utgU5d27T1cgmgjc7u3
41/xl9vXwhrgLP4SAD3bRRULqnpdQ/imiqXobo8eKou0thqx1zFKBWiYaxiEx8BV
HWbPa7+J/IeyoOHmm9CCMzStdgc6/6GLI/Jr7qDUycVy8kJW8u+PrHE9NTwf8s7B
aK5aTgJnTvbfmpPgcTmdR8gT7YabNYCtj1rMb9PcaI7jguIcyfVNsJBPdrbyZGE2
QR/mS7NlF0sAjNkIJEHCOn0YW0SX+fEYMl8dObvqNq2fVzF4zahPpyUOPJSMEA==
-----END CERTIFICATE-----
