Certificate:
    Data:
        Version: 1 (0x0)
        Serial Number: 2 (0x2)
    Signature Algorithm: sha256WithRSAEncryption
        Issuer: CN=Other CA
        Validity
            Not Before: May 26 11:36:52 2018 GMT
            Not After : May 23 11:36:52 2028 GMT
        Subject: CN=client
        Subject Public Key Info:
            Public Key Algorithm: rsaEncryption
                Public-Key: (2048 bit)
                Modulus:
                    00:d5:98:27:9c:2d:d5:19:53:dd:7b:87:07:95:cf:
                    82:6a:bd:9f:6f:64:48:b5:ac:7f:81:1b:df:07:61:
                    f4:51:fe:1d:d0:6a:86:f1:3c:89:99:bb:78:73:28:
                    76:7e:30:f6:e6:f7:81:ee:9c:b3:c0:54:0f:72:66:
                    1b:d9:31:3a:0d:7c:eb:83:e1:35:0f:04:f9:68:06:
                    e3:73:c0:17:d9:93:63:b8:09:a5:de:1b:86:a2:95:
                    55:94:7e:6e:6d:fe:5f:91:0f:fe:79:cd:82:ae:87:
                    0d:7f:56:5f:65:70:ea:f2:17:65:c0:98:f4:36:17:
                    58:30:10:a2:bb:c2:dd:40:93:cc:f0:f3:fc:9e:62:
                    00:6f:d7:f1:7e:89:b0:8c:bd:1e:85:56:3f:40:04:
                    11:1f:4c:cf:a8:3a:ce:28:cb:9d:68:b5:4b:f4:87:
                    ad:c6:a9:88:17:30:9c:8b:5f:ba:be:00:65:9d:0b:
                    7b:2b:c3:02:d0:44:eb:64:ce:2e:f2:d3:48:3f:62:
                    bc:97:52:82:2a:75:71:08:ec:2a:cd:2f:7e:6b:65:
                    77:19:e4:b7:c6:47:01:57:f5:eb:d7:d7:53:e9:4f:
                    73:92:85:89:6c:24:17:05:13:d2:8c:6a:d4:68:21:
                    67:7a:c5:42:a5:c5:39:34:c8:b8:e8:39:41:36:b6:
                    c3:09
                Exponent: 65537 (0x10001)
    Signature Algorithm: sha256WithRSAEncryption
         5c:6c:7b:f5:fe:12:5b:37:3d:63:13:1e:b0:b9:2d:77:c5:4c:
         22:f7:1e:ad:bf:7d:f9:f3:f6:05:f3:a7:ae:3b:ea:fa:02:82:
         94:fc:8a:63:8e:9e:ff:ec:bd:eb:10:3d:bd:b1:7e:5d:03:58:
         c8:78:0f:58:d9:53:6b:c9:20:8a:9a:65:f9:26:f4:ad:1e:31:
         3e:a5:cc:57:01:f7:ad:35:b5:c8:a4:5e:dc:df:ef:12:9b:65:
         71:a8:c3:73:f2:50:35:6d:ad:80:a6:82:40:3d:51:3f:bc:04:
         c7:77:bf:4a:ef:22:7b:82:af:51:75:bb:d0:c2:bd:47:0d:e1:
         f3:14:3c:ba:05:37:68:bd:56:c9:ea:8b:15:9d:05:5e:f9:7e:
         71:02:03:81:c0:ed:78:d8:5e:96:ec:23:9b:b0:21:0b:6b:af:
         e9:23:c4:88:73:a5:f9:07:64:ba:b3:0e:af:7b:ef:46:5a:f9:
         60:64:a7:17:e4:ab:86:f5:11:09:82:36:a2:5f:48:8e:64:a6:
         48:6f:24:76:d7:93:03:2b:37:6a:54:ad:62:99:d3:19:ad:fc:
         44:65:35:a4:42:58:46:d1:4b:a5:9c:63:69:32:37:fe:93:9e:
         f2:fb:86:33:ce:a4:86:9f:99:d3:c1:d0:8c:e9:eb:9a:cc:fb:
         4a:58:98:f4
-----BEGIN CERTIFICATE-----
MIICmDCCAYACAQIwDQYJKoZIhvcNAQELBQAwEzERMA8GA1UEAwwIT3RoZXIgQ0Ew
HhcNMTgwNTI2MTEzNjUyWhcNMjgwNTIzMTEzNjUyWjARMQ8wDQYDVQQDEwZjbGll
bnQwggEiMA0GCSqGSIb3DQEBAQUAA4IBDwAwggEKAoIBAQDVmCecLdUZU917hweV
z4JqvZ9vZEi1rH+BG98HYfRR/h3QaobxPImZu3hzKHZ+MPbm94HunLPAVA9yZhvZ
MToNfOuD4TUPBPloBuNzwBfZk2O4CaXeG4ailVWUfm5t/l+RD/55zYKuhw1/Vl9l
cOryF2XAmPQ2F1gwEKK7wt1Ak8zw8/yeYgBv1/F+ibCMvR6FVj9ABBEfTM+oOs4o
y51otUv0h63GqYgXMJyLX7q+AGWdC3srwwLQROtkzi7y00g/YryXUoIqdXEI7CrN
L35rZXcZ5LfGRwFX9evX11PpT3OShYlsJBcFE9KMatRoIWd6xUKlxTk0yLjoOUE2
tsMJAgMBAAEwDQYJKoZIhvcNAQELBQADggEBAFxse/X+Els3PWMTHrC5LXfFTCL3
Hq2/ffnz9gXzp6476voCgpT8imOOnv/svesQPb2xfl0DWMh4D1jZU2vJIIqaZfkm
9K0eMT6lzFcB9601tcikXtzf7xKbZXGow3PyUDVtrYCmgkA9UT+8BMd3v0rvInuC
r1F1u9DCvUcN4fMUPLoFN2i9VsnqixWdBV75fnECA4HA7XjYXpbsI5uwIQtrr+kj
xIhzpfkHZLqzDq9770Za+WBkpxfkq4b1EQmCNqJfSI5kpkhvJHbXkwMrN2pUrWKZ
0xmt/ERlNaRCWEbRS6WcY2kyN/6TnvL7hjPOpIafmdPB0Izp65rM+0pYmPQ=
-----END CERTIFICATE-----
