Certificate:
    Data:
        Version: 3 (0x2)
        Serial Number: 1 (0x1)
        Signature Algorithm: sha256WithRSAEncryption
        Issuer: CN=Other CA
        Validity
            Not Before: May 27 17:06:10 2022 GMT
            Not After : May 19 17:06:10 2052 GMT
        Subject: CN=localhost
        Subject Public Key Info:
            Public Key Algorithm: rsaEncryption
                RSA Public-Key: (2048 bit)
                Modulus:
                    00:dc:f4:80:a5:a5:59:e2:dd:b5:0f:d9:b9:ac:f7:
                    6f:3d:22:c1:dc:05:78:3b:ff:f6:bb:8e:70:15:13:
                    b1:04:40:8c:0c:98:10:86:f5:08:72:54:92:b5:94:
                    d4:1d:c9:64:33:53:dc:b2:61:a3:c8:dd:94:07:f8:
                    95:6e:f0:a6:16:c2:e5:5f:5b:aa:20:2d:a8:42:ff:
                    ba:84:e2:71:1e:e5:1b:5a:26:bb:28:db:7d:39:b5:
                    71:ea:a7:ac:11:52:89:5f:b0:54:d5:25:0c:2f:c9:
                    38:81:1e:0f:71:7d:d7:ed:b6:33:16:d4:85:40:3f:
                    64:62:50:05:d1:3f:23:9e:15:4b:78:13:f8:ec:61:
                    e5:e9:43:0f:e8:83:d0:18:b8:b5:3f:04:d2:e7:7f:
                    d4:fd:47:e0:9e:6f:cd:9d:fc:c7:8c:51:44:1a:1f:
                    3d:2d:9d:4f:67:67:35:d9:3e:a7:da:e8:dc:53:d8:
                    c7:4c:8c:dd:6c:1a:e8:da:38:dd:34:9d:94:bc:b2:
                    be:bc:c1:f5:84:9c:f4:7f:30:c7:c0:e6:30:34:17:
                    d2:b8:97:a1:d3:cc:ec:1c:29:ec:8b:3c:b6:9c:f1:
                    f5:6e:3a:b4:51:20:84:85:46:19:c5:54:26:b7:cc:
                    f7:18:b3:9c:6d:55:2f:79:30:01:74:5a:d0:15:d7:
                    72:e7
                Exponent: 65537 (0x10001)
        X509v3 extensions:
            X509v3 Subject Alternative Name: 
                DNS:localhost
    Signature Algorithm: sha256WithRSAEncryption
         4d:6b:33:63:1c:8e:56:45:dc:8c:06:45:01:b9:50:7f:d3:cf:
         40:cf:98:cf:9b:f1:e6:01:65:a1:f8:74:50:ae:f0:95:42:db:
         51:1f:83:6e:6c:9e:bf:98:b6:ca:06:74:2e:ec:b9:15:0f:d9:
         6a:38:53:c6:c4:30:50:6b:9d:25:d7:98:53:60:54:0f:22:b8:
         74:2c:b7:a9:19:d9:0f:51:27:f6:a1:2e:8e:69:d1:9a:21:d5:
         82:1e:80:57:b3:a6:da:27:11:15:7e:ce:4d:f5:18:59:05:45:
         7a:9d:15:a1:47:17:81:bb:da:ba:59:f2:6e:a7:af:b4:9a:f0:
         a8:48:3f:85:f6:0e:47:a3:ed:b3:c9:04:f1:88:23:1c:8a:f0:
         d2:c4:22:1d:34:e1:7f:7c:1a:4a:64:ad:0f:a3:e0:8a:0b:ad:
         bb:08:05:40:cd:48:cc:50:33:43:57:d9:30:b0:c5:28:16:a1:
         d7:47:34:5a:79:5e:ff:52:c8:1f:1f:af:c6:10:84:c8:13:14:
         74:fd:44:01:0a:b3:d2:ca:42:6f:0b:c9:6c:3f:b5:ba:1e:b6:
         2f:d9:cc:33:cf:1d:b4:54:30:3d:e4:0d:0e:c5:2b:95:bb:8d:
         20:0e:56:b2:db:98:5b:56:b1:41:99:52:e8:90:67:a8:5c:18:
         94:1f:48:bc
-----BEGIN CERTIFICATE-----
MIICvDCCAaSgAwIBAgIBATANBgkqhkiG9w0BAQsFADATMREwDwYDVQQDDAhPdGhl
ciBDQTAgFw0yMjA1MjcxNzA2MTBaGA8yMDUyMDUxOTE3MDYxMFowFDESMBAGA1UE
AxMJbG9jYWxob3N0MIIBIjANBgkqhkiG9w0BAQEFAAOCAQ8AMIIBCgKCAQEA3PSA
paVZ4t21D9m5rPdvPSLB3AV4O//2u45wFROxBECMDJgQhvUIclSStZTUHclkM1Pc
smGjyN2UB/iVbvCmFsLlX1uqIC2oQv+6hOJxHuUbWia7KNt9ObVx6qesEVKJX7BU
1SUML8k4gR4PcX3X7bYzFtSFQD9kYlAF0T8jnhVLeBP47GHl6UMP6IPQGLi1PwTS
53/U/Ufgnm/NnfzHjFFEGh89LZ1PZ2c12T6n2ujcU9jHTIzdbBro2jjdNJ2UvLK+
vMH1hJz0fzDHwOYwNBfSuJeh08zsHCnsizy2nPH1bjq0USCEhUYZxVQmt8z3GLOc
bVUveTABdFrQFddy5wIDAQABoxgwFjAUBgNVHREEDTALgglsb2NhbGhvc3QwDQYJ
KoZIhvcNAQELBQADggEBAE1rM2McjlZF3IwGRQG5UH/Tz0DPmM+b8eYBZaH4dFCu
8JVC21Efg25snr+YtsoGdC7suRUP2Wo4U8bEMFBrnSXXmFNgVA8iuHQst6kZ2Q9R
J/ahLo5p0Zoh1YIegFezptonERV+zk31GFkFRXqdFaFHF4G72rpZ8m6nr7Sa8KhI
P4X2Dkej7bPJBPGIIxyK8NLEIh004X98GkpkrQ+j4IoLrbsIBUDNSMxQM0NX2TCw
xSgWoddHNFp5Xv9SyB8fr8YQhMgTFHT9RAEKs9LKQm8LyWw/tboeti/ZzDPPHbRU
MD3kDQ7FK5W7jSAOVrLbmFtWsUGZUuiQZ6hcGJQfSLw=
-----END CERTIFICATE-----
