Certificate:
    Data:
        Version: 3 (0x2)
        Serial Number: 1 (0x1)
    Signature Algorithm: sha1WithRSAEncryption
        Issuer: CN=localhost
        Validity
            Not Before: Oct 27 08:54:37 2017 GMT
            Not After : Oct 27 08:54:37 2018 GMT
        Subject: CN=localhost
        Subject Public Key Info:
            Public Key Algorithm: rsaEncryption
                Public-Key: (2048 bit)
                Modulus:
                    00:8d:92:f3:50:11:7a:29:a1:6d:5b:bf:26:c9:56:
                    13:63:6f:2c:e5:75:49:b6:06:1a:18:76:af:d0:cb:
                    38:26:e0:10:be:3e:8e:fe:0e:09:2b:b4:9d:1a:f5:
                    90:aa:1a:69:6c:fe:06:a8:ba:bd:48:a1:93:5c:3a:
                    b8:a2:cd:77:99:df:2b:13:c0:c1:63:7d:7d:00:79:
                    44:70:34:89:8a:02:a5:82:e0:1c:ca:d3:2f:a8:43:
                    e3:4c:ae:1c:8c:ae:a1:82:41:73:4d:24:e7:d5:42:
                    d4:f8:e7:e0:d8:5f:d4:7b:21:d6:82:47:f1:e4:67:
                    5d:32:2b:70:57:2e:7f:c4:07:52:00:be:99:5b:6b:
                    f6:65:e2:e7:02:d1:8b:06:e8:68:1b:68:db:bf:f8:
                    ca:31:ed:f3:9d:0c:11:79:84:b1:40:69:8c:88:41:
                    38:6d:9e:65:7e:d8:87:84:e3:74:c8:15:6b:f0:ff:
                    cf:fd:d7:47:e2:17:51:e5:70:64:5e:0d:bd:d3:d0:
                    15:c2:94:dd:a0:ca:c5:d8:da:13:3f:f6:6b:67:81:
                    82:6d:9f:a6:e9:6d:e5:ff:c4:30:7e:f7:ac:9f:87:
                    30:bf:93:32:e9:70:08:42:ba:f4:b5:fc:c3:bd:fa:
                    6d:3c:f7:3f:9e:f6:ff:89:90:79:95:65:05:18:2e:
                    10:09
                Exponent: 65537 (0x10001)
        X509v3 extensions:
            X509v3 Subject Alternative Name: 
                DNS:localhost
    Signature Algorithm: sha1WithRSAEncryption
         5b:c4:dc:38:3c:60:f9:27:8f:d2:82:e0:09:87:75:36:ee:09:
         9d:c4:fc:22:4f:68:3f:39:72:0f:fe:41:39:4f:f5:a2:bc:63:
         03:61:b7:cd:b3:2e:77:cb:2d:35:1c:fa:72:21:85:d8:a7:a4:
         b6:5a:55:f2:da:a0:1a:af:1b:dd:ee:e6:ef:7c:8b:3a:9d:78:
         f8:88:c3:46:91:08:2f:ac:ba:6a:f9:97:c5:59:21:94:c7:05:
         14:0f:92:e1:5d:b5:27:80:fe:36:6b:0c:f5:20:0e:cb:aa:12:
         56:77:75:89:ff:23:52:5d:1b:e9:1e:28:97:e1:72:c7:15:3d:
         a1:65:fe:29:fa:a3:94:90:98:86:6d:08:0f:16:99:74:88:5a:
         26:67:eb:1b:54:ef:26:da:59:09:5e:5c:97:c7:9d:2d:45:55:
         18:7d:50:e9:40:e3:a8:fd:58:9c:19:3d:e5:82:89:de:0b:9f:
         72:25:33:7d:d1:d5:b8:4f:65:04:07:be:c4:00:6c:22:83:fc:
         05:39:77:41:24:c5:d4:80:f2:34:3f:d3:53:a7:79:a6:3f:74:
         c8:56:42:23:7e:fe:d9:88:e1:a7:a5:f8:33:a9:f3:ed:ff:d6:
         4c:09:67:73:51:f5:3d:62:5b:76:7b:c0:b3:f1:bb:48:fd:7f:
         64:50:85:10
-----BEGIN CERTIFICATE-----
MIICuzCCAaOgAwIBAgIBATANBgkqhkiG9w0BAQUFADAUMRIwEAYDVQQDDAlsb2Nh
bGhvc3QwHhcNMTcxMDI3MDg1NDM3WhcNMTgxMDI3MDg1NDM3WjAUMRIwEAYDVQQD
Ewlsb2NhbGhvc3QwggEiMA0GCSqGSIb3DQEBAQUAA4IBDwAwggEKAoIBAQCNkvNQ
EXopoW1bvybJVhNjbyzldUm2BhoYdq/Qyzgm4BC+Po7+DgkrtJ0a9ZCqGmls/gao
ur1IoZNcOriizXeZ3ysTwMFjfX0AeURwNImKAqWC4BzK0y+oQ+NMrhyMrqGCQXNN
JOfVQtT45+DYX9R7IdaCR/HkZ10yK3BXLn/EB1IAvplba/Zl4ucC0YsG6GgbaNu/
+Mox7fOdDBF5hLFAaYyIQThtnmV+2IeE43TIFWvw/8/910fiF1HlcGReDb3T0BXC
lN2gysXY2hM/9mtngYJtn6bpbeX/xDB+96yfhzC/kzLpcAhCuvS1/MO9+m089z+e
9v+JkHmVZQUYLhAJAgMBAAGjGDAWMBQGA1UdEQQNMAuCCWxvY2FsaG9zdDANBgkq
hkiG9w0BAQUFAAOCAQEAW8TcODxg+SeP0oLgCYd1Nu4JncT8Ik9oPzlyD/5BOU/1
orxjA2G3zbMud8stNRz6ciGF2KektlpV8tqgGq8b3e7m73yLOp14+IjDRpEIL6y6
avmXxVkhlMcFFA+S4V21J4D+NmsM9SAOy6oSVnd1if8jUl0b6R4ol+FyxxU9oWX+
KfqjlJCYhm0IDxaZdIhaJmfrG1TvJtpZCV5cl8edLUVVGH1Q6UDjqP1YnBk95YKJ
3gufciUzfdHVuE9lBAe+xABsIoP8BTl3QSTF1IDyND/TU6d5pj90yFZCI37+2Yjh
p6X4M6nz7f/WTAlnc1H1PWJbdnvAs/G7SP1/ZFCFEA==
-----END CERTIFICATE-----
