Certificate:
    Data:
        Version: 3 (0x2)
        Serial Number: 1 (0x1)
        Signature Algorithm: sha1WithRSAEncryption
        Issuer: CN=localhost
        Validity
            Not Before: Oct 21 09:14:28 2016 GMT
            Not After : Oct 21 09:14:28 2017 GMT
        Subject: CN=localhost
        Subject Public Key Info:
            Public Key Algorithm: rsaEncryption
            RSA Public Key: (2048 bit)
                Modulus (2048 bit):
                    00:94:ee:20:6c:77:85:6f:f7:e6:6d:41:7f:b4:e2:
                    5f:34:f2:6e:98:95:04:aa:0c:c0:cf:1f:0c:05:7b:
                    fd:01:cc:b0:f4:84:5a:f2:06:22:0a:b7:3e:3e:87:
                    da:0e:bf:73:6a:ce:de:d5:3f:c0:cf:3b:b9:e3:0c:
                    8e:a9:d3:33:83:de:d5:18:35:c5:b4:dc:ad:4e:af:
                    6c:b5:08:9d:e9:c7:03:4a:be:83:37:c8:01:02:0c:
                    07:78:e5:a9:1e:bf:bd:3e:13:25:b7:40:4f:3d:e4:
                    f2:f9:2d:5f:e9:5f:32:00:52:1f:5d:56:e3:10:e1:
                    cb:77:f7:33:4a:a0:35:13:c9:f7:cd:0b:fd:8f:e9:
                    ef:b7:27:93:90:65:66:93:a3:ac:03:d6:3c:98:c3:
                    71:ef:4e:06:a1:b0:94:a3:c4:ef:08:76:f5:1f:47:
                    ff:01:56:c3:d5:dc:e5:f7:9f:50:30:01:98:90:bc:
                    32:1c:69:31:07:58:0b:39:d6:19:7a:66:f0:57:23:
                    b3:dc:f8:bc:d6:84:e5:6f:18:5d:7a:02:a5:b6:48:
                    91:18:04:be:3a:1e:b2:b0:34:79:be:7d:56:ea:b2:
                    b5:04:22:25:bb:6d:97:51:8d:45:92:30:32:28:71:
                    f1:e1:3d:6b:54:37:08:8e:ed:1a:1f:b9:72:01:9b:
                    ba:5f
                Exponent: 65537 (0x10001)
        X509v3 extensions:
            X509v3 Subject Alternative Name: 
                DNS:localhost
    Signature Algorithm: sha1WithRSAEncryption
        32:dc:90:7f:e3:97:c1:62:46:91:3c:dd:cf:20:12:7d:52:d1:
        47:cf:0e:3f:fb:94:e0:88:9b:89:2d:fc:37:be:ab:83:0b:af:
        3b:32:ac:e3:b9:50:07:6e:2b:4e:eb:02:4d:7e:e0:40:dc:90:
        a9:8a:cb:40:62:0d:01:33:60:aa:b2:2a:21:74:9e:90:d1:43:
        8d:fb:1b:3c:d7:e9:08:f5:ff:aa:c1:87:bd:19:d2:c8:05:ca:
        9b:0a:03:0c:68:8f:0e:37:5f:a1:a6:50:0a:85:71:b0:fb:0c:
        bb:d3:55:a5:96:0f:b4:7b:06:17:1b:87:46:f9:97:81:37:5b:
        a0:d4:f3:05:61:ad:53:93:45:79:eb:a3:64:f7:6a:ad:8d:65:
        10:cb:3a:67:f0:9e:c5:e9:8a:ef:71:69:f1:d4:49:f4:ce:56:
        ea:c1:36:8c:de:c3:06:8a:ec:58:54:5f:f9:86:e0:40:42:49:
        da:5f:b9:a1:ca:e9:26:26:83:ad:f5:e2:6e:36:af:bc:4f:c7:
        12:11:f9:75:c8:a1:44:4c:e3:87:6a:23:e0:ed:ce:4e:13:94:
        68:36:9a:3c:d8:37:cc:e3:ab:e9:52:7e:dc:bb:c6:2f:52:37:
        5c:63:80:0e:0b:1b:c8:2c:6c:5e:fc:a2:3e:cc:14:66:41:bb:
        d0:2d:02:66
-----BEGIN CERTIFICATE-----
MIICuzCCAaOgAwIBAgIBATANBgkqhkiG9w0BAQUFADAUMRIwEAYDVQQDEwlsb2Nh
bGhvc3QwHhcNMTYxMDIxMDkxNDI4WhcNMTcxMDIxMDkxNDI4WjAUMRIwEAYDVQQD
Ewlsb2NhbGhvc3QwggEiMA0GCSqGSIb3DQEBAQUAA4IBDwAwggEKAoIBAQCU7iBs
d4Vv9+ZtQX+04l808m6YlQSqDMDPHwwFe/0BzLD0hFryBiIKtz4+h9oOv3Nqzt7V
P8DPO7njDI6p0zOD3tUYNcW03K1Or2y1CJ3pxwNKvoM3yAECDAd45akev70+EyW3
QE895PL5LV/pXzIAUh9dVuMQ4ct39zNKoDUTyffNC/2P6e+3J5OQZWaTo6wD1jyY
w3HvTgahsJSjxO8IdvUfR/8BVsPV3OX3n1AwAZiQvDIcaTEHWAs51hl6ZvBXI7Pc
+LzWhOVvGF16AqW2SJEYBL46HrKwNHm+fVbqsrUEIiW7bZdRjUWSMDIocfHhPWtU
NwiO7RofuXIBm7pfAgMBAAGjGDAWMBQGA1UdEQQNMAuCCWxvY2FsaG9zdDANBgkq
hkiG9w0BAQUFAAOCAQEAMtyQf+OXwWJGkTzdzyASfVLRR88OP/uU4IibiS38N76r
gwuvOzKs47lQB24rTusCTX7gQNyQqYrLQGINATNgqrIqIXSekNFDjfsbPNfpCPX/
qsGHvRnSyAXKmwoDDGiPDjdfoaZQCoVxsPsMu9NVpZYPtHsGFxuHRvmXgTdboNTz
BWGtU5NFeeujZPdqrY1lEMs6Z/CexemK73Fp8dRJ9M5W6sE2jN7DBorsWFRf+Ybg
QEJJ2l+5ocrpJiaDrfXibjavvE/HEhH5dcihREzjh2oj4O3OThOUaDaaPNg3zOOr
6VJ+3LvGL1I3XGOADgsbyCxsXvyiPswUZkG70C0CZg==
-----END CERTIFICATE-----
