Certificate:
    Data:
        Version: 3 (0x2)
        Serial Number: 1 (0x1)
        Signature Algorithm: sha1WithRSAEncryption
        Issuer: CN=localhost
        Validity
            Not Before: Sep  6 21:33:44 2016 GMT
            Not After : Sep  6 21:33:44 2017 GMT
        Subject: CN=localhost
        Subject Public Key Info:
            Public Key Algorithm: rsaEncryption
            RSA Public Key: (2048 bit)
                Modulus (2048 bit):
                    00:9a:c7:2c:01:f8:a4:3d:f8:72:40:39:ed:94:74:
                    8a:e8:d7:2f:59:fb:85:45:97:83:7f:f2:78:5b:be:
                    db:12:fd:7b:36:4c:92:75:1f:a1:0b:eb:ec:7b:9e:
                    2e:13:d7:81:94:09:27:0a:54:46:08:83:03:62:1d:
                    53:29:5e:18:31:95:84:47:9f:14:f1:3a:58:10:64:
                    24:4e:c0:d5:71:30:c1:26:2e:bc:6a:e0:d5:8e:c0:
                    66:dd:43:2c:09:ee:18:06:de:ba:36:ea:b3:3f:43:
                    34:70:2e:14:5b:09:1f:a0:b1:77:6c:52:f7:03:fe:
                    7a:ed:94:3d:b8:cf:f4:5f:07:03:68:79:3c:d8:ee:
                    ce:29:a8:15:6a:7b:11:ed:4f:0a:6c:6e:b4:e2:2a:
                    d6:60:e7:b9:2f:d0:a2:25:18:8a:01:d9:53:9e:12:
                    8f:96:06:0c:d9:ff:a0:7f:58:f8:9b:9e:29:7c:a0:
                    4c:76:4d:c6:c9:87:85:6f:ce:ab:4d:80:6f:b2:02:
                    2b:58:9d:c9:b0:27:96:77:a8:55:44:78:4d:ab:29:
                    2c:62:8c:e2:d6:86:4d:20:5c:6f:2e:af:21:85:8b:
                    78:0b:fa:a8:94:8d:75:05:6f:62:19:c7:45:8b:77:
                    5d:5a:dc:cb:5a:bc:7d:68:9d:0c:93:62:b0:e5:73:
                    31:c7
                Exponent: 65537 (0x10001)
        X509v3 extensions:
            X509v3 Subject Alternative Name: 
                DNS:localhost
    Signature Algorithm: sha1WithRSAEncryption
        ae:3d:ab:a9:f6:d7:f3:3f:1b:5f:7f:b5:11:7f:ec:33:e9:9a:
        c9:fc:70:23:af:48:d6:ca:fc:ac:ca:91:dc:28:bf:3c:b4:86:
        70:86:b8:76:5f:17:32:22:5d:d4:2c:5b:70:88:7b:ec:6e:5c:
        bf:53:00:35:2b:36:d6:bf:1d:2f:fd:32:16:7f:e0:aa:d1:20:
        b6:cd:3f:81:c2:6b:46:ab:f2:0d:79:a1:53:9e:33:17:a5:40:
        7e:60:6c:d5:56:9c:9d:0b:89:c6:07:6a:92:a2:00:7f:03:b1:
        83:9a:9a:79:01:81:d3:4b:95:41:1e:07:94:d6:1c:a5:53:1c:
        49:01:17:a0:49:45:9f:4f:ca:28:12:c6:6d:cc:5a:b6:90:d0:
        a1:0b:b5:62:47:63:92:13:0d:af:35:e6:10:4d:66:ec:3f:61:
        a6:a2:4c:3d:39:10:63:0f:d4:88:fc:90:f5:5e:01:5d:0c:60:
        45:29:a8:3e:92:fb:35:80:d4:88:f6:e6:d7:d3:09:79:ef:7c:
        03:76:11:d8:7b:db:8d:92:cf:f6:e6:50:13:d3:d7:e8:11:89:
        92:af:c5:e7:4e:89:f5:e5:f2:41:de:27:54:f2:1e:1b:17:ec:
        04:71:7a:7d:7a:40:db:45:c9:50:0f:9f:87:fc:a4:35:50:83:
        cf:f7:41:21
-----BEGIN CERTIFICATE-----
MIICuzCCAaOgAwIBAgIBATANBgkqhkiG9w0BAQUFADAUMRIwEAYDVQQDEwlsb2Nh
bGhvc3QwHhcNMTYwOTA2MjEzMzQ0WhcNMTcwOTA2MjEzMzQ0WjAUMRIwEAYDVQQD
Ewlsb2NhbGhvc3QwggEiMA0GCSqGSIb3DQEBAQUAA4IBDwAwggEKAoIBAQCaxywB
+KQ9+HJAOe2UdIro1y9Z+4VFl4N/8nhbvtsS/Xs2TJJ1H6EL6+x7ni4T14GUCScK
VEYIgwNiHVMpXhgxlYRHnxTxOlgQZCROwNVxMMEmLrxq4NWOwGbdQywJ7hgG3ro2
6rM/QzRwLhRbCR+gsXdsUvcD/nrtlD24z/RfBwNoeTzY7s4pqBVqexHtTwpsbrTi
KtZg57kv0KIlGIoB2VOeEo+WBgzZ/6B/WPibnil8oEx2TcbJh4VvzqtNgG+yAitY
ncmwJ5Z3qFVEeE2rKSxijOLWhk0gXG8uryGFi3gL+qiUjXUFb2IZx0WLd11a3Mta
vH1onQyTYrDlczHHAgMBAAGjGDAWMBQGA1UdEQQNMAuCCWxvY2FsaG9zdDANBgkq
hkiG9w0BAQUFAAOCAQEArj2rqfbX8z8bX3+1EX/sM+mayfxwI69I1sr8rMqR3Ci/
PLSGcIa4dl8XMiJd1CxbcIh77G5cv1MANSs21r8dL/0yFn/gqtEgts0/gcJrRqvy
DXmhU54zF6VAfmBs1VacnQuJxgdqkqIAfwOxg5qaeQGB00uVQR4HlNYcpVMcSQEX
oElFn0/KKBLGbcxatpDQoQu1YkdjkhMNrzXmEE1m7D9hpqJMPTkQYw/UiPyQ9V4B
XQxgRSmoPpL7NYDUiPbm19MJee98A3YR2HvbjZLP9uZQE9PX6BGJkq/F506J9eXy
Qd4nVPIeGxfsBHF6fXpA20XJUA+fh/ykNVCDz/dBIQ==
-----END CERTIFICATE-----
